---
triple:          'arm64-apple-darwin'
binary-path:     test
relocations:
  - { offsetInCU: 0x5C, offset: 0x5C, size: 0x8, addend: 0x0, symName: __ZNSt3__1L19piecewise_constructE, symObjAddr: 0x59C5, symBinAddr: 0x10001772E, symSize: 0x0 }
  - { offsetInCU: 0x9C43, offset: 0x9C43, size: 0x8, addend: 0x0, symName: __ZNSt3__1neB8ue170006ERKNS_14__map_iteratorINS_15__tree_iteratorINS_12__value_typeINS_12basic_stringIcNS_11char_traitsIcEENS_9allocatorIcEEEEP6PersonEEPNS_11__tree_nodeISB_PvEElEEEESJ_, symObjAddr: 0x144, symBinAddr: 0x100003FAC, symSize: 0x30 }
  - { offsetInCU: 0x9C80, offset: 0x9C80, size: 0x8, addend: 0x0, symName: __ZNSt3__17getlineB8ue170006IcNS_11char_traitsIcEENS_9allocatorIcEEEERNS_13basic_istreamIT_T0_EES9_RNS_12basic_stringIS6_S7_T1_EE, symObjAddr: 0x4C0, symBinAddr: 0x100004328, symSize: 0x5C }
  - { offsetInCU: 0xA054, offset: 0xA054, size: 0x8, addend: 0x0, symName: __ZNSt3__17getlineB8ue170006IcNS_11char_traitsIcEENS_9allocatorIcEEEERNS_13basic_istreamIT_T0_EES9_RNS_12basic_stringIS6_S7_T1_EES6_, symObjAddr: 0x6A4, symBinAddr: 0x10000450C, symSize: 0x238 }
  - { offsetInCU: 0xA112, offset: 0xA112, size: 0x8, addend: 0x0, symName: __ZNSt3__1eqB8ue170006IcNS_11char_traitsIcEENS_9allocatorIcEEEEbRKNS_12basic_stringIT_T0_T1_EEPKS6_, symObjAddr: 0xA44, symBinAddr: 0x1000048AC, symSize: 0xAC }
  - { offsetInCU: 0xA184, offset: 0xA184, size: 0x8, addend: 0x0, symName: __ZNSt3__1neB8ue170006IcNS_11char_traitsIcEENS_9allocatorIcEEEEbRKNS_12basic_stringIT_T0_T1_EEPKS6_, symObjAddr: 0xB64, symBinAddr: 0x1000049CC, symSize: 0x34 }
  - { offsetInCU: 0xA1DC, offset: 0xA1DC, size: 0x8, addend: 0x0, symName: __ZNSt3__1neB8ue170006ERKNS_20__map_const_iteratorINS_21__tree_const_iteratorINS_12__value_typeINS_12basic_stringIcNS_11char_traitsIcEENS_9allocatorIcEEEEP6PersonEEPNS_11__tree_nodeISB_PvEElEEEESJ_, symObjAddr: 0xE70, symBinAddr: 0x100004CD8, symSize: 0x30 }
  - { offsetInCU: 0xA24C, offset: 0xA24C, size: 0x8, addend: 0x0, symName: __ZNSt3__1neB8ue170006ERKNS_15__tree_iteratorINS_12__value_typeINS_12basic_stringIcNS_11char_traitsIcEENS_9allocatorIcEEEEP6PersonEEPNS_11__tree_nodeISA_PvEElEESH_, symObjAddr: 0x12D0, symBinAddr: 0x100005138, symSize: 0x34 }
  - { offsetInCU: 0xA289, offset: 0xA289, size: 0x8, addend: 0x0, symName: __ZNSt3__1eqB8ue170006ERKNS_15__tree_iteratorINS_12__value_typeINS_12basic_stringIcNS_11char_traitsIcEENS_9allocatorIcEEEEP6PersonEEPNS_11__tree_nodeISA_PvEElEESH_, symObjAddr: 0x1304, symBinAddr: 0x10000516C, symSize: 0x30 }
  - { offsetInCU: 0xA2C6, offset: 0xA2C6, size: 0x8, addend: 0x0, symName: __ZNSt3__116__tree_next_iterB8ue170006IPNS_15__tree_end_nodeIPNS_16__tree_node_baseIPvEEEES5_EET_T0_, symObjAddr: 0x136C, symBinAddr: 0x1000051D4, symSize: 0x90 }
  - { offsetInCU: 0xA304, offset: 0xA304, size: 0x8, addend: 0x0, symName: __ZNSt3__110__tree_minB8ue170006IPNS_16__tree_node_baseIPvEEEET_S5_, symObjAddr: 0x13FC, symBinAddr: 0x100005264, symSize: 0x40 }
  - { offsetInCU: 0xA339, offset: 0xA339, size: 0x8, addend: 0x0, symName: __ZNSt3__120__tree_is_left_childB8ue170006IPNS_16__tree_node_baseIPvEEEEbT_, symObjAddr: 0x143C, symBinAddr: 0x1000052A4, symSize: 0x2C }
  - { offsetInCU: 0xA3A1, offset: 0xA3A1, size: 0x8, addend: 0x0, symName: __ZNSt3__119__libcpp_deallocateB8ue170006EPvmm, symObjAddr: 0x1750, symBinAddr: 0x1000055B8, symSize: 0x30 }
  - { offsetInCU: 0xA3E9, offset: 0xA3E9, size: 0x8, addend: 0x0, symName: __ZNSt3__127__do_deallocate_handle_sizeB8ue170006IJEEEvPvmDpT_, symObjAddr: 0x1780, symBinAddr: 0x1000055E8, symSize: 0x28 }
  - { offsetInCU: 0xA427, offset: 0xA427, size: 0x8, addend: 0x0, symName: __ZNSt3__124__libcpp_operator_deleteB8ue170006IJPvEEEvDpT_, symObjAddr: 0x17A8, symBinAddr: 0x100005610, symSize: 0x24 }
  - { offsetInCU: 0xA45C, offset: 0xA45C, size: 0x8, addend: 0x0, symName: __ZNSt3__19use_facetB8ue170006INS_5ctypeIcEEEERKT_RKNS_6localeE, symObjAddr: 0x20C0, symBinAddr: 0x100005F28, symSize: 0x2C }
  - { offsetInCU: 0xAB5E, offset: 0xAB5E, size: 0x8, addend: 0x0, symName: __ZNSt3__118__constexpr_strlenB8ue170006EPKc, symObjAddr: 0x2BB0, symBinAddr: 0x100006A18, symSize: 0x24 }
  - { offsetInCU: 0xABC1, offset: 0xABC1, size: 0x8, addend: 0x0, symName: __ZNSt3__116forward_as_tupleB8ue170006IJRKNS_12basic_stringIcNS_11char_traitsIcEENS_9allocatorIcEEEEEEENS_5tupleIJDpOT_EEESC_, symObjAddr: 0x2CD4, symBinAddr: 0x100006B3C, symSize: 0x2C }
  - { offsetInCU: 0xABFA, offset: 0xABFA, size: 0x8, addend: 0x0, symName: __ZNSt3__116forward_as_tupleB8ue170006IJEEENS_5tupleIJDpOT_EEES4_, symObjAddr: 0x2D00, symBinAddr: 0x100006B68, symSize: 0x4 }
  - { offsetInCU: 0xAC1E, offset: 0xAC1E, size: 0x8, addend: 0x0, symName: __ZNSt3__1ltB8ue170006IcNS_11char_traitsIcEENS_9allocatorIcEEEEbRKNS_12basic_stringIT_T0_T1_EESB_, symObjAddr: 0x32D8, symBinAddr: 0x100007140, symSize: 0x38 }
  - { offsetInCU: 0xAC76, offset: 0xAC76, size: 0x8, addend: 0x0, symName: __ZNSt3__13minB8ue170006ImEERKT_S3_S3_, symObjAddr: 0x3564, symBinAddr: 0x1000073CC, symSize: 0x2C }
  - { offsetInCU: 0xACB9, offset: 0xACB9, size: 0x8, addend: 0x0, symName: __ZNSt3__112__to_addressB8ue170006IKcEEPT_S3_, symObjAddr: 0x3590, symBinAddr: 0x1000073F8, symSize: 0x14 }
  - { offsetInCU: 0xAD21, offset: 0xAD21, size: 0x8, addend: 0x0, symName: __ZNSt3__13minB8ue170006ImNS_6__lessIvvEEEERKT_S5_S5_T0_, symObjAddr: 0x365C, symBinAddr: 0x1000074C4, symSize: 0x54 }
  - { offsetInCU: 0xADDE, offset: 0xADDE, size: 0x8, addend: 0x0, symName: __ZNSt3__117__libcpp_allocateB8ue170006Emm, symObjAddr: 0x393C, symBinAddr: 0x1000077A4, symSize: 0x28 }
  - { offsetInCU: 0xAE1B, offset: 0xAE1B, size: 0x8, addend: 0x0, symName: __ZNSt3__121__libcpp_operator_newB8ue170006IJmEEEPvDpT_, symObjAddr: 0x3978, symBinAddr: 0x1000077E0, symSize: 0x24 }
  - { offsetInCU: 0xAE5F, offset: 0xAE5F, size: 0x8, addend: 0x0, symName: __ZNSt3__13getB8ue170006ILm0EJRKNS_12basic_stringIcNS_11char_traitsIcEENS_9allocatorIcEEEEEEERNS_13tuple_elementIXT_ENS_5tupleIJDpT0_EEEE4typeERSD_, symObjAddr: 0x3BEC, symBinAddr: 0x100007A54, symSize: 0x24 }
  - { offsetInCU: 0xAEA2, offset: 0xAEA2, size: 0x8, addend: 0x0, symName: __ZNSt3__127__tree_balance_after_insertB8ue170006IPNS_16__tree_node_baseIPvEEEEvT_S5_, symObjAddr: 0x3C9C, symBinAddr: 0x100007B04, symSize: 0x27C }
  - { offsetInCU: 0xAF1E, offset: 0xAF1E, size: 0x8, addend: 0x0, symName: __ZNSt3__118__tree_left_rotateB8ue170006IPNS_16__tree_node_baseIPvEEEEvT_, symObjAddr: 0x3F40, symBinAddr: 0x100007DA8, symSize: 0xD8 }
  - { offsetInCU: 0xAF60, offset: 0xAF60, size: 0x8, addend: 0x0, symName: __ZNSt3__119__tree_right_rotateB8ue170006IPNS_16__tree_node_baseIPvEEEEvT_, symObjAddr: 0x4018, symBinAddr: 0x100007E80, symSize: 0xCC }
  - { offsetInCU: 0xAFC6, offset: 0xAFC6, size: 0x8, addend: 0x0, symName: __ZNSt3__1neB8ue170006ERKNS_21__tree_const_iteratorINS_12__value_typeINS_12basic_stringIcNS_11char_traitsIcEENS_9allocatorIcEEEEP6PersonEEPNS_11__tree_nodeISA_PvEElEESH_, symObjAddr: 0x47B8, symBinAddr: 0x100008620, symSize: 0x34 }
  - { offsetInCU: 0xB003, offset: 0xB003, size: 0x8, addend: 0x0, symName: __ZNSt3__1eqB8ue170006ERKNS_21__tree_const_iteratorINS_12__value_typeINS_12basic_stringIcNS_11char_traitsIcEENS_9allocatorIcEEEEP6PersonEEPNS_11__tree_nodeISA_PvEElEESH_, symObjAddr: 0x47EC, symBinAddr: 0x100008654, symSize: 0x30 }
  - { offsetInCU: 0xB1F9, offset: 0xB1F9, size: 0x8, addend: 0x0, symName: __ZSt28__throw_bad_array_new_lengthB8ue170006v, symObjAddr: 0x3908, symBinAddr: 0x100007770, symSize: 0x34 }
  - { offsetInCU: 0xE515, offset: 0xE515, size: 0x8, addend: 0x0, symName: __ZN8GenePoolD2Ev, symObjAddr: 0x0, symBinAddr: 0x100003E68, symSize: 0xD4 }
  - { offsetInCU: 0xE58B, offset: 0xE58B, size: 0x8, addend: 0x0, symName: __ZNSt3__13mapINS_12basic_stringIcNS_11char_traitsIcEENS_9allocatorIcEEEEP6PersonNS_4lessIS6_EENS4_INS_4pairIKS6_S8_EEEEE5beginB8ue170006Ev, symObjAddr: 0xD4, symBinAddr: 0x100003F3C, symSize: 0x38 }
  - { offsetInCU: 0xE5B1, offset: 0xE5B1, size: 0x8, addend: 0x0, symName: __ZNSt3__13mapINS_12basic_stringIcNS_11char_traitsIcEENS_9allocatorIcEEEEP6PersonNS_4lessIS6_EENS4_INS_4pairIKS6_S8_EEEEE3endB8ue170006Ev, symObjAddr: 0x10C, symBinAddr: 0x100003F74, symSize: 0x38 }
  - { offsetInCU: 0xE5D7, offset: 0xE5D7, size: 0x8, addend: 0x0, symName: __ZNKSt3__114__map_iteratorINS_15__tree_iteratorINS_12__value_typeINS_12basic_stringIcNS_11char_traitsIcEENS_9allocatorIcEEEEP6PersonEEPNS_11__tree_nodeISB_PvEElEEEdeB8ue170006Ev, symObjAddr: 0x180, symBinAddr: 0x100003FE8, symSize: 0x28 }
  - { offsetInCU: 0xE5FD, offset: 0xE5FD, size: 0x8, addend: 0x0, symName: __ZN6PersonD1Ev, symObjAddr: 0x1A8, symBinAddr: 0x100004010, symSize: 0x2C }
  - { offsetInCU: 0xE629, offset: 0xE629, size: 0x8, addend: 0x0, symName: __ZNSt3__114__map_iteratorINS_15__tree_iteratorINS_12__value_typeINS_12basic_stringIcNS_11char_traitsIcEENS_9allocatorIcEEEEP6PersonEEPNS_11__tree_nodeISB_PvEElEEEppB8ue170006Ev, symObjAddr: 0x1D4, symBinAddr: 0x10000403C, symSize: 0x2C }
  - { offsetInCU: 0xE64F, offset: 0xE64F, size: 0x8, addend: 0x0, symName: __ZNSt3__13mapINS_12basic_stringIcNS_11char_traitsIcEENS_9allocatorIcEEEEP6PersonNS_4lessIS6_EENS4_INS_4pairIKS6_S8_EEEEED1B8ue170006Ev, symObjAddr: 0x200, symBinAddr: 0x100004068, symSize: 0x2C }
  - { offsetInCU: 0xE679, offset: 0xE679, size: 0x8, addend: 0x0, symName: __ZN8GenePoolD1Ev, symObjAddr: 0x22C, symBinAddr: 0x100004094, symSize: 0x2C }
  - { offsetInCU: 0xE6A5, offset: 0xE6A5, size: 0x8, addend: 0x0, symName: __ZN8GenePoolC2ERNSt3__113basic_istreamIcNS0_11char_traitsIcEEEE, symObjAddr: 0x258, symBinAddr: 0x1000040C0, symSize: 0x210 }
  - { offsetInCU: 0xE748, offset: 0xE748, size: 0x8, addend: 0x0, symName: __ZNSt3__13mapINS_12basic_stringIcNS_11char_traitsIcEENS_9allocatorIcEEEEP6PersonNS_4lessIS6_EENS4_INS_4pairIKS6_S8_EEEEEC1B8ue170006Ev, symObjAddr: 0x468, symBinAddr: 0x1000042D0, symSize: 0x2C }
  - { offsetInCU: 0xE772, offset: 0xE772, size: 0x8, addend: 0x0, symName: __ZNSt3__112basic_stringIcNS_11char_traitsIcEENS_9allocatorIcEEEC1B8ue170006Ev, symObjAddr: 0x494, symBinAddr: 0x1000042FC, symSize: 0x2C }
  - { offsetInCU: 0xE79C, offset: 0xE79C, size: 0x8, addend: 0x0, symName: __ZNKSt3__19basic_iosIcNS_11char_traitsIcEEEcvbB8ue170006Ev, symObjAddr: 0x51C, symBinAddr: 0x100004384, symSize: 0x2C }
  - { offsetInCU: 0xE7C2, offset: 0xE7C2, size: 0x8, addend: 0x0, symName: __ZNKSt3__112basic_stringIcNS_11char_traitsIcEENS_9allocatorIcEEE5emptyB8ue170006Ev, symObjAddr: 0x548, symBinAddr: 0x1000043B0, symSize: 0x30 }
  - { offsetInCU: 0xE7E8, offset: 0xE7E8, size: 0x8, addend: 0x0, symName: __ZNSt3__112basic_stringIcNS_11char_traitsIcEENS_9allocatorIcEEEixB8ue170006Em, symObjAddr: 0x578, symBinAddr: 0x1000043E0, symSize: 0x30 }
  - { offsetInCU: 0xE86D, offset: 0xE86D, size: 0x8, addend: 0x0, symName: __ZNSt3__119basic_istringstreamIcNS_11char_traitsIcEENS_9allocatorIcEEEC1B8ue170006ERKNS_12basic_stringIcS2_S4_EEj, symObjAddr: 0x5A8, symBinAddr: 0x100004410, symSize: 0xFC }
  - { offsetInCU: 0xE8B5, offset: 0xE8B5, size: 0x8, addend: 0x0, symName: __ZN8GenePool9addPersonERKNSt3__112basic_stringIcNS0_11char_traitsIcEENS0_9allocatorIcEEEE6GenderS8_S8_, symObjAddr: 0x8DC, symBinAddr: 0x100004744, symSize: 0x168 }
  - { offsetInCU: 0xE948, offset: 0xE948, size: 0x8, addend: 0x0, symName: __ZNSt3__119basic_istringstreamIcNS_11char_traitsIcEENS_9allocatorIcEEED1Ev, symObjAddr: 0xAF0, symBinAddr: 0x100004958, symSize: 0x40 }
  - { offsetInCU: 0xE975, offset: 0xE975, size: 0x8, addend: 0x0, symName: __ZN8GenePoolC1ERNSt3__113basic_istreamIcNS0_11char_traitsIcEEEE, symObjAddr: 0xB30, symBinAddr: 0x100004998, symSize: 0x34 }
  - { offsetInCU: 0xE9AF, offset: 0xE9AF, size: 0x8, addend: 0x0, symName: __ZNK8GenePool4findERKNSt3__112basic_stringIcNS0_11char_traitsIcEENS0_9allocatorIcEEEE, symObjAddr: 0xB98, symBinAddr: 0x100004A00, symSize: 0x88 }
  - { offsetInCU: 0xE9F4, offset: 0xE9F4, size: 0x8, addend: 0x0, symName: __ZNSt3__13mapINS_12basic_stringIcNS_11char_traitsIcEENS_9allocatorIcEEEEP6PersonNS_4lessIS6_EENS4_INS_4pairIKS6_S8_EEEEEixERSC_, symObjAddr: 0xC20, symBinAddr: 0x100004A88, symSize: 0x80 }
  - { offsetInCU: 0xEA2B, offset: 0xEA2B, size: 0x8, addend: 0x0, symName: __ZNK8GenePool8everyoneEv, symObjAddr: 0xCA0, symBinAddr: 0x100004B08, symSize: 0x134 }
  - { offsetInCU: 0xEAB6, offset: 0xEAB6, size: 0x8, addend: 0x0, symName: __ZNSt3__13setIP6PersonNS_4lessIS2_EENS_9allocatorIS2_EEEC1B8ue170006Ev, symObjAddr: 0xDD4, symBinAddr: 0x100004C3C, symSize: 0x2C }
  - { offsetInCU: 0xEAE0, offset: 0xEAE0, size: 0x8, addend: 0x0, symName: __ZNKSt3__13mapINS_12basic_stringIcNS_11char_traitsIcEENS_9allocatorIcEEEEP6PersonNS_4lessIS6_EENS4_INS_4pairIKS6_S8_EEEEE5beginB8ue170006Ev, symObjAddr: 0xE00, symBinAddr: 0x100004C68, symSize: 0x38 }
  - { offsetInCU: 0xEB06, offset: 0xEB06, size: 0x8, addend: 0x0, symName: __ZNKSt3__13mapINS_12basic_stringIcNS_11char_traitsIcEENS_9allocatorIcEEEEP6PersonNS_4lessIS6_EENS4_INS_4pairIKS6_S8_EEEEE3endB8ue170006Ev, symObjAddr: 0xE38, symBinAddr: 0x100004CA0, symSize: 0x38 }
  - { offsetInCU: 0xEB2C, offset: 0xEB2C, size: 0x8, addend: 0x0, symName: __ZNKSt3__120__map_const_iteratorINS_21__tree_const_iteratorINS_12__value_typeINS_12basic_stringIcNS_11char_traitsIcEENS_9allocatorIcEEEEP6PersonEEPNS_11__tree_nodeISB_PvEElEEEdeB8ue170006Ev, symObjAddr: 0xEA0, symBinAddr: 0x100004D08, symSize: 0x28 }
  - { offsetInCU: 0xEB52, offset: 0xEB52, size: 0x8, addend: 0x0, symName: __ZNSt3__13setIP6PersonNS_4lessIS2_EENS_9allocatorIS2_EEE6insertB8ue170006ERKS2_, symObjAddr: 0xEC8, symBinAddr: 0x100004D30, symSize: 0x4C }
  - { offsetInCU: 0xEB87, offset: 0xEB87, size: 0x8, addend: 0x0, symName: __ZNSt3__120__map_const_iteratorINS_21__tree_const_iteratorINS_12__value_typeINS_12basic_stringIcNS_11char_traitsIcEENS_9allocatorIcEEEEP6PersonEEPNS_11__tree_nodeISB_PvEElEEEppB8ue170006Ev, symObjAddr: 0xF14, symBinAddr: 0x100004D7C, symSize: 0x2C }
  - { offsetInCU: 0xEBAD, offset: 0xEBAD, size: 0x8, addend: 0x0, symName: __ZNSt3__13setIP6PersonNS_4lessIS2_EENS_9allocatorIS2_EEED1B8ue170006Ev, symObjAddr: 0xF40, symBinAddr: 0x100004DA8, symSize: 0x2C }
  - { offsetInCU: 0xEBD7, offset: 0xEBD7, size: 0x8, addend: 0x0, symName: __ZNKSt3__13mapINS_12basic_stringIcNS_11char_traitsIcEENS_9allocatorIcEEEEP6PersonNS_4lessIS6_EENS4_INS_4pairIKS6_S8_EEEEE4findB8ue170006ERSC_, symObjAddr: 0xF6C, symBinAddr: 0x100004DD4, symSize: 0x40 }
  - { offsetInCU: 0xEC0C, offset: 0xEC0C, size: 0x8, addend: 0x0, symName: __ZNKSt3__120__map_const_iteratorINS_21__tree_const_iteratorINS_12__value_typeINS_12basic_stringIcNS_11char_traitsIcEENS_9allocatorIcEEEEP6PersonEEPNS_11__tree_nodeISB_PvEElEEEptB8ue170006Ev, symObjAddr: 0xFAC, symBinAddr: 0x100004E14, symSize: 0x2C }
  - { offsetInCU: 0xEC32, offset: 0xEC32, size: 0x8, addend: 0x0, symName: __ZN6PersonD2Ev, symObjAddr: 0xFD8, symBinAddr: 0x100004E40, symSize: 0x5C }
  - { offsetInCU: 0xEC5E, offset: 0xEC5E, size: 0x8, addend: 0x0, symName: __ZNSt3__119basic_istringstreamIcNS_11char_traitsIcEENS_9allocatorIcEEED2Ev, symObjAddr: 0x1034, symBinAddr: 0x100004E9C, symSize: 0x64 }
  - { offsetInCU: 0xEC98, offset: 0xEC98, size: 0x8, addend: 0x0, symName: __ZTv0_n24_NSt3__119basic_istringstreamIcNS_11char_traitsIcEENS_9allocatorIcEEED1Ev, symObjAddr: 0x1098, symBinAddr: 0x100004F00, symSize: 0x28 }
  - { offsetInCU: 0xECB4, offset: 0xECB4, size: 0x8, addend: 0x0, symName: __ZNSt3__115basic_stringbufIcNS_11char_traitsIcEENS_9allocatorIcEEED1Ev, symObjAddr: 0x10C0, symBinAddr: 0x100004F28, symSize: 0x2C }
  - { offsetInCU: 0xECE1, offset: 0xECE1, size: 0x8, addend: 0x0, symName: __ZNSt3__115basic_stringbufIcNS_11char_traitsIcEENS_9allocatorIcEEED2Ev, symObjAddr: 0x10EC, symBinAddr: 0x100004F54, symSize: 0x48 }
  - { offsetInCU: 0xED0E, offset: 0xED0E, size: 0x8, addend: 0x0, symName: __ZNSt3__16__treeINS_12__value_typeINS_12basic_stringIcNS_11char_traitsIcEENS_9allocatorIcEEEEP6PersonEENS_19__map_value_compareIS7_SA_NS_4lessIS7_EELb1EEENS5_ISA_EEE5beginB8ue170006Ev, symObjAddr: 0x1134, symBinAddr: 0x100004F9C, symSize: 0x34 }
  - { offsetInCU: 0xED34, offset: 0xED34, size: 0x8, addend: 0x0, symName: __ZNSt3__114__map_iteratorINS_15__tree_iteratorINS_12__value_typeINS_12basic_stringIcNS_11char_traitsIcEENS_9allocatorIcEEEEP6PersonEEPNS_11__tree_nodeISB_PvEElEEEC1B8ue170006ESG_, symObjAddr: 0x1168, symBinAddr: 0x100004FD0, symSize: 0x34 }
  - { offsetInCU: 0xED6D, offset: 0xED6D, size: 0x8, addend: 0x0, symName: __ZNSt3__16__treeINS_12__value_typeINS_12basic_stringIcNS_11char_traitsIcEENS_9allocatorIcEEEEP6PersonEENS_19__map_value_compareIS7_SA_NS_4lessIS7_EELb1EEENS5_ISA_EEE12__begin_nodeB8ue170006Ev, symObjAddr: 0x119C, symBinAddr: 0x100005004, symSize: 0x14 }
  - { offsetInCU: 0xED93, offset: 0xED93, size: 0x8, addend: 0x0, symName: __ZNSt3__115__tree_iteratorINS_12__value_typeINS_12basic_stringIcNS_11char_traitsIcEENS_9allocatorIcEEEEP6PersonEEPNS_11__tree_nodeISA_PvEElEC1B8ue170006EPNS_15__tree_end_nodeIPNS_16__tree_node_baseISC_EEEE, symObjAddr: 0x11B0, symBinAddr: 0x100005018, symSize: 0x34 }
  - { offsetInCU: 0xEDCC, offset: 0xEDCC, size: 0x8, addend: 0x0, symName: __ZNSt3__115__tree_iteratorINS_12__value_typeINS_12basic_stringIcNS_11char_traitsIcEENS_9allocatorIcEEEEP6PersonEEPNS_11__tree_nodeISA_PvEElEC2B8ue170006EPNS_15__tree_end_nodeIPNS_16__tree_node_baseISC_EEEE, symObjAddr: 0x11E4, symBinAddr: 0x10000504C, symSize: 0x20 }
  - { offsetInCU: 0xEE05, offset: 0xEE05, size: 0x8, addend: 0x0, symName: __ZNSt3__114__map_iteratorINS_15__tree_iteratorINS_12__value_typeINS_12basic_stringIcNS_11char_traitsIcEENS_9allocatorIcEEEEP6PersonEEPNS_11__tree_nodeISB_PvEElEEEC2B8ue170006ESG_, symObjAddr: 0x1204, symBinAddr: 0x10000506C, symSize: 0x20 }
  - { offsetInCU: 0xEE3E, offset: 0xEE3E, size: 0x8, addend: 0x0, symName: __ZNSt3__16__treeINS_12__value_typeINS_12basic_stringIcNS_11char_traitsIcEENS_9allocatorIcEEEEP6PersonEENS_19__map_value_compareIS7_SA_NS_4lessIS7_EELb1EEENS5_ISA_EEE3endB8ue170006Ev, symObjAddr: 0x1224, symBinAddr: 0x10000508C, symSize: 0x34 }
  - { offsetInCU: 0xEE64, offset: 0xEE64, size: 0x8, addend: 0x0, symName: __ZNSt3__16__treeINS_12__value_typeINS_12basic_stringIcNS_11char_traitsIcEENS_9allocatorIcEEEEP6PersonEENS_19__map_value_compareIS7_SA_NS_4lessIS7_EELb1EEENS5_ISA_EEE10__end_nodeB8ue170006Ev, symObjAddr: 0x1258, symBinAddr: 0x1000050C0, symSize: 0x2C }
  - { offsetInCU: 0xEE8A, offset: 0xEE8A, size: 0x8, addend: 0x0, symName: __ZNSt3__114pointer_traitsIPNS_15__tree_end_nodeIPNS_16__tree_node_baseIPvEEEEE10pointer_toB8ue170006ERS6_, symObjAddr: 0x1284, symBinAddr: 0x1000050EC, symSize: 0x14 }
  - { offsetInCU: 0xEEAD, offset: 0xEEAD, size: 0x8, addend: 0x0, symName: __ZNSt3__117__compressed_pairINS_15__tree_end_nodeIPNS_16__tree_node_baseIPvEEEENS_9allocatorINS_11__tree_nodeINS_12__value_typeINS_12basic_stringIcNS_11char_traitsIcEENS7_IcEEEEP6PersonEES3_EEEEE5firstB8ue170006Ev, symObjAddr: 0x1298, symBinAddr: 0x100005100, symSize: 0x24 }
  - { offsetInCU: 0xEED3, offset: 0xEED3, size: 0x8, addend: 0x0, symName: __ZNSt3__122__compressed_pair_elemINS_15__tree_end_nodeIPNS_16__tree_node_baseIPvEEEELi0ELb0EE5__getB8ue170006Ev, symObjAddr: 0x12BC, symBinAddr: 0x100005124, symSize: 0x14 }
  - { offsetInCU: 0xEEF9, offset: 0xEEF9, size: 0x8, addend: 0x0, symName: __ZNSt3__115__tree_iteratorINS_12__value_typeINS_12basic_stringIcNS_11char_traitsIcEENS_9allocatorIcEEEEP6PersonEEPNS_11__tree_nodeISA_PvEElEppB8ue170006Ev, symObjAddr: 0x1334, symBinAddr: 0x10000519C, symSize: 0x38 }
  - { offsetInCU: 0xEF1F, offset: 0xEF1F, size: 0x8, addend: 0x0, symName: __ZNKSt3__116__tree_node_baseIPvE15__parent_unsafeB8ue170006Ev, symObjAddr: 0x1468, symBinAddr: 0x1000052D0, symSize: 0x18 }
  - { offsetInCU: 0xEF45, offset: 0xEF45, size: 0x8, addend: 0x0, symName: __ZNKSt3__115__tree_iteratorINS_12__value_typeINS_12basic_stringIcNS_11char_traitsIcEENS_9allocatorIcEEEEP6PersonEEPNS_11__tree_nodeISA_PvEElEptB8ue170006Ev, symObjAddr: 0x1480, symBinAddr: 0x1000052E8, symSize: 0x2C }
  - { offsetInCU: 0xEF6B, offset: 0xEF6B, size: 0x8, addend: 0x0, symName: __ZNSt3__112__value_typeINS_12basic_stringIcNS_11char_traitsIcEENS_9allocatorIcEEEEP6PersonE11__get_valueB8ue170006Ev, symObjAddr: 0x14AC, symBinAddr: 0x100005314, symSize: 0x14 }
  - { offsetInCU: 0xEF91, offset: 0xEF91, size: 0x8, addend: 0x0, symName: __ZNSt3__114pointer_traitsIPNS_12__value_typeINS_12basic_stringIcNS_11char_traitsIcEENS_9allocatorIcEEEEP6PersonEEE10pointer_toB8ue170006ERSA_, symObjAddr: 0x14C0, symBinAddr: 0x100005328, symSize: 0x14 }
  - { offsetInCU: 0xEFB4, offset: 0xEFB4, size: 0x8, addend: 0x0, symName: __ZNKSt3__115__tree_iteratorINS_12__value_typeINS_12basic_stringIcNS_11char_traitsIcEENS_9allocatorIcEEEEP6PersonEEPNS_11__tree_nodeISA_PvEElE8__get_npB8ue170006Ev, symObjAddr: 0x14D4, symBinAddr: 0x10000533C, symSize: 0x18 }
  - { offsetInCU: 0xEFDA, offset: 0xEFDA, size: 0x8, addend: 0x0, symName: __ZNSt3__13setIP6PersonNS_4lessIS2_EENS_9allocatorIS2_EEED2B8ue170006Ev, symObjAddr: 0x14EC, symBinAddr: 0x100005354, symSize: 0x2C }
  - { offsetInCU: 0xF004, offset: 0xF004, size: 0x8, addend: 0x0, symName: __ZNSt3__16__treeIP6PersonNS_4lessIS2_EENS_9allocatorIS2_EEED1Ev, symObjAddr: 0x1518, symBinAddr: 0x100005380, symSize: 0x2C }
  - { offsetInCU: 0xF030, offset: 0xF030, size: 0x8, addend: 0x0, symName: __ZNSt3__16__treeIP6PersonNS_4lessIS2_EENS_9allocatorIS2_EEED2Ev, symObjAddr: 0x1544, symBinAddr: 0x1000053AC, symSize: 0x38 }
  - { offsetInCU: 0xF05C, offset: 0xF05C, size: 0x8, addend: 0x0, symName: __ZNSt3__16__treeIP6PersonNS_4lessIS2_EENS_9allocatorIS2_EEE7destroyEPNS_11__tree_nodeIS2_PvEE, symObjAddr: 0x157C, symBinAddr: 0x1000053E4, symSize: 0xAC }
  - { offsetInCU: 0xF0A8, offset: 0xF0A8, size: 0x8, addend: 0x0, symName: __ZNKSt3__16__treeIP6PersonNS_4lessIS2_EENS_9allocatorIS2_EEE6__rootB8ue170006Ev, symObjAddr: 0x1628, symBinAddr: 0x100005490, symSize: 0x28 }
  - { offsetInCU: 0xF0CE, offset: 0xF0CE, size: 0x8, addend: 0x0, symName: __ZNSt3__16__treeIP6PersonNS_4lessIS2_EENS_9allocatorIS2_EEE12__node_allocB8ue170006Ev, symObjAddr: 0x1650, symBinAddr: 0x1000054B8, symSize: 0x28 }
  - { offsetInCU: 0xF0F4, offset: 0xF0F4, size: 0x8, addend: 0x0, symName: __ZNSt3__116allocator_traitsINS_9allocatorINS_11__tree_nodeIP6PersonPvEEEEE7destroyB8ue170006IS4_vvEEvRS7_PT_, symObjAddr: 0x1678, symBinAddr: 0x1000054E0, symSize: 0x14 }
  - { offsetInCU: 0xF12F, offset: 0xF12F, size: 0x8, addend: 0x0, symName: __ZNSt3__122__tree_key_value_typesIP6PersonE9__get_ptrB8ue170006ERS2_, symObjAddr: 0x168C, symBinAddr: 0x1000054F4, symSize: 0x14 }
  - { offsetInCU: 0xF153, offset: 0xF153, size: 0x8, addend: 0x0, symName: __ZNSt3__116allocator_traitsINS_9allocatorINS_11__tree_nodeIP6PersonPvEEEEE10deallocateB8ue170006ERS7_PS6_m, symObjAddr: 0x16A0, symBinAddr: 0x100005508, symSize: 0x34 }
  - { offsetInCU: 0xF195, offset: 0xF195, size: 0x8, addend: 0x0, symName: __ZNSt3__117__compressed_pairINS_15__tree_end_nodeIPNS_16__tree_node_baseIPvEEEENS_9allocatorINS_11__tree_nodeIP6PersonS3_EEEEE6secondB8ue170006Ev, symObjAddr: 0x16D4, symBinAddr: 0x10000553C, symSize: 0x24 }
  - { offsetInCU: 0xF1BB, offset: 0xF1BB, size: 0x8, addend: 0x0, symName: __ZNSt3__122__compressed_pair_elemINS_9allocatorINS_11__tree_nodeIP6PersonPvEEEELi1ELb1EE5__getB8ue170006Ev, symObjAddr: 0x16F8, symBinAddr: 0x100005560, symSize: 0x14 }
  - { offsetInCU: 0xF1E1, offset: 0xF1E1, size: 0x8, addend: 0x0, symName: __ZNSt3__19allocatorINS_11__tree_nodeIP6PersonPvEEE10deallocateB8ue170006EPS5_m, symObjAddr: 0x170C, symBinAddr: 0x100005574, symSize: 0x44 }
  - { offsetInCU: 0xF223, offset: 0xF223, size: 0x8, addend: 0x0, symName: __ZNKSt3__16__treeIP6PersonNS_4lessIS2_EENS_9allocatorIS2_EEE10__end_nodeB8ue170006Ev, symObjAddr: 0x17CC, symBinAddr: 0x100005634, symSize: 0x2C }
  - { offsetInCU: 0xF249, offset: 0xF249, size: 0x8, addend: 0x0, symName: __ZNKSt3__117__compressed_pairINS_15__tree_end_nodeIPNS_16__tree_node_baseIPvEEEENS_9allocatorINS_11__tree_nodeIP6PersonS3_EEEEE5firstB8ue170006Ev, symObjAddr: 0x17F8, symBinAddr: 0x100005660, symSize: 0x24 }
  - { offsetInCU: 0xF26F, offset: 0xF26F, size: 0x8, addend: 0x0, symName: __ZNKSt3__122__compressed_pair_elemINS_15__tree_end_nodeIPNS_16__tree_node_baseIPvEEEELi0ELb0EE5__getB8ue170006Ev, symObjAddr: 0x181C, symBinAddr: 0x100005684, symSize: 0x14 }
  - { offsetInCU: 0xF295, offset: 0xF295, size: 0x8, addend: 0x0, symName: __ZNSt3__13mapINS_12basic_stringIcNS_11char_traitsIcEENS_9allocatorIcEEEEP6PersonNS_4lessIS6_EENS4_INS_4pairIKS6_S8_EEEEED2B8ue170006Ev, symObjAddr: 0x1830, symBinAddr: 0x100005698, symSize: 0x2C }
  - { offsetInCU: 0xF2BF, offset: 0xF2BF, size: 0x8, addend: 0x0, symName: __ZNSt3__16__treeINS_12__value_typeINS_12basic_stringIcNS_11char_traitsIcEENS_9allocatorIcEEEEP6PersonEENS_19__map_value_compareIS7_SA_NS_4lessIS7_EELb1EEENS5_ISA_EEED1Ev, symObjAddr: 0x185C, symBinAddr: 0x1000056C4, symSize: 0x2C }
  - { offsetInCU: 0xF2EB, offset: 0xF2EB, size: 0x8, addend: 0x0, symName: __ZNSt3__16__treeINS_12__value_typeINS_12basic_stringIcNS_11char_traitsIcEENS_9allocatorIcEEEEP6PersonEENS_19__map_value_compareIS7_SA_NS_4lessIS7_EELb1EEENS5_ISA_EEED2Ev, symObjAddr: 0x1888, symBinAddr: 0x1000056F0, symSize: 0x38 }
  - { offsetInCU: 0xF317, offset: 0xF317, size: 0x8, addend: 0x0, symName: __ZNSt3__16__treeINS_12__value_typeINS_12basic_stringIcNS_11char_traitsIcEENS_9allocatorIcEEEEP6PersonEENS_19__map_value_compareIS7_SA_NS_4lessIS7_EELb1EEENS5_ISA_EEE7destroyEPNS_11__tree_nodeISA_PvEE, symObjAddr: 0x18C0, symBinAddr: 0x100005728, symSize: 0xAC }
  - { offsetInCU: 0xF363, offset: 0xF363, size: 0x8, addend: 0x0, symName: __ZNKSt3__16__treeINS_12__value_typeINS_12basic_stringIcNS_11char_traitsIcEENS_9allocatorIcEEEEP6PersonEENS_19__map_value_compareIS7_SA_NS_4lessIS7_EELb1EEENS5_ISA_EEE6__rootB8ue170006Ev, symObjAddr: 0x196C, symBinAddr: 0x1000057D4, symSize: 0x28 }
  - { offsetInCU: 0xF389, offset: 0xF389, size: 0x8, addend: 0x0, symName: __ZNSt3__16__treeINS_12__value_typeINS_12basic_stringIcNS_11char_traitsIcEENS_9allocatorIcEEEEP6PersonEENS_19__map_value_compareIS7_SA_NS_4lessIS7_EELb1EEENS5_ISA_EEE12__node_allocB8ue170006Ev, symObjAddr: 0x1994, symBinAddr: 0x1000057FC, symSize: 0x28 }
  - { offsetInCU: 0xF3AF, offset: 0xF3AF, size: 0x8, addend: 0x0, symName: __ZNSt3__116allocator_traitsINS_9allocatorINS_11__tree_nodeINS_12__value_typeINS_12basic_stringIcNS_11char_traitsIcEENS1_IcEEEEP6PersonEEPvEEEEE7destroyB8ue170006INS_4pairIKS8_SA_EEvvEEvRSE_PT_, symObjAddr: 0x19BC, symBinAddr: 0x100005824, symSize: 0x28 }
  - { offsetInCU: 0xF3EA, offset: 0xF3EA, size: 0x8, addend: 0x0, symName: __ZNSt3__122__tree_key_value_typesINS_12__value_typeINS_12basic_stringIcNS_11char_traitsIcEENS_9allocatorIcEEEEP6PersonEEE9__get_ptrB8ue170006ERSA_, symObjAddr: 0x19E4, symBinAddr: 0x10000584C, symSize: 0x24 }
  - { offsetInCU: 0xF40E, offset: 0xF40E, size: 0x8, addend: 0x0, symName: __ZNSt3__116allocator_traitsINS_9allocatorINS_11__tree_nodeINS_12__value_typeINS_12basic_stringIcNS_11char_traitsIcEENS1_IcEEEEP6PersonEEPvEEEEE10deallocateB8ue170006ERSE_PSD_m, symObjAddr: 0x1A08, symBinAddr: 0x100005870, symSize: 0x34 }
  - { offsetInCU: 0xF450, offset: 0xF450, size: 0x8, addend: 0x0, symName: __ZNSt3__117__compressed_pairINS_15__tree_end_nodeIPNS_16__tree_node_baseIPvEEEENS_9allocatorINS_11__tree_nodeINS_12__value_typeINS_12basic_stringIcNS_11char_traitsIcEENS7_IcEEEEP6PersonEES3_EEEEE6secondB8ue170006Ev, symObjAddr: 0x1A3C, symBinAddr: 0x1000058A4, symSize: 0x24 }
  - { offsetInCU: 0xF476, offset: 0xF476, size: 0x8, addend: 0x0, symName: __ZNSt3__122__compressed_pair_elemINS_9allocatorINS_11__tree_nodeINS_12__value_typeINS_12basic_stringIcNS_11char_traitsIcEENS1_IcEEEEP6PersonEEPvEEEELi1ELb1EE5__getB8ue170006Ev, symObjAddr: 0x1A60, symBinAddr: 0x1000058C8, symSize: 0x14 }
  - { offsetInCU: 0xF49C, offset: 0xF49C, size: 0x8, addend: 0x0, symName: __ZNSt3__14pairIKNS_12basic_stringIcNS_11char_traitsIcEENS_9allocatorIcEEEEP6PersonED1Ev, symObjAddr: 0x1A74, symBinAddr: 0x1000058DC, symSize: 0x2C }
  - { offsetInCU: 0xF4C8, offset: 0xF4C8, size: 0x8, addend: 0x0, symName: __ZNSt3__14pairIKNS_12basic_stringIcNS_11char_traitsIcEENS_9allocatorIcEEEEP6PersonED2Ev, symObjAddr: 0x1AA0, symBinAddr: 0x100005908, symSize: 0x2C }
  - { offsetInCU: 0xF4F4, offset: 0xF4F4, size: 0x8, addend: 0x0, symName: __ZNSt3__19allocatorINS_11__tree_nodeINS_12__value_typeINS_12basic_stringIcNS_11char_traitsIcEENS0_IcEEEEP6PersonEEPvEEE10deallocateB8ue170006EPSC_m, symObjAddr: 0x1ACC, symBinAddr: 0x100005934, symSize: 0x40 }
  - { offsetInCU: 0xF536, offset: 0xF536, size: 0x8, addend: 0x0, symName: __ZNKSt3__16__treeINS_12__value_typeINS_12basic_stringIcNS_11char_traitsIcEENS_9allocatorIcEEEEP6PersonEENS_19__map_value_compareIS7_SA_NS_4lessIS7_EELb1EEENS5_ISA_EEE10__end_nodeB8ue170006Ev, symObjAddr: 0x1B0C, symBinAddr: 0x100005974, symSize: 0x2C }
  - { offsetInCU: 0xF55C, offset: 0xF55C, size: 0x8, addend: 0x0, symName: __ZNKSt3__117__compressed_pairINS_15__tree_end_nodeIPNS_16__tree_node_baseIPvEEEENS_9allocatorINS_11__tree_nodeINS_12__value_typeINS_12basic_stringIcNS_11char_traitsIcEENS7_IcEEEEP6PersonEES3_EEEEE5firstB8ue170006Ev, symObjAddr: 0x1B38, symBinAddr: 0x1000059A0, symSize: 0x24 }
  - { offsetInCU: 0xF582, offset: 0xF582, size: 0x8, addend: 0x0, symName: __ZNSt3__13mapINS_12basic_stringIcNS_11char_traitsIcEENS_9allocatorIcEEEEP6PersonNS_4lessIS6_EENS4_INS_4pairIKS6_S8_EEEEEC2B8ue170006Ev, symObjAddr: 0x1B5C, symBinAddr: 0x1000059C4, symSize: 0x40 }
  - { offsetInCU: 0xF5AC, offset: 0xF5AC, size: 0x8, addend: 0x0, symName: __ZNSt3__119__map_value_compareINS_12basic_stringIcNS_11char_traitsIcEENS_9allocatorIcEEEENS_12__value_typeIS6_P6PersonEENS_4lessIS6_EELb1EEC1B8ue170006ESC_, symObjAddr: 0x1B9C, symBinAddr: 0x100005A04, symSize: 0x2C }
  - { offsetInCU: 0xF5E5, offset: 0xF5E5, size: 0x8, addend: 0x0, symName: __ZNSt3__16__treeINS_12__value_typeINS_12basic_stringIcNS_11char_traitsIcEENS_9allocatorIcEEEEP6PersonEENS_19__map_value_compareIS7_SA_NS_4lessIS7_EELb1EEENS5_ISA_EEEC1ERKSE_, symObjAddr: 0x1BC8, symBinAddr: 0x100005A30, symSize: 0x34 }
  - { offsetInCU: 0xF620, offset: 0xF620, size: 0x8, addend: 0x0, symName: __ZNSt3__119__map_value_compareINS_12basic_stringIcNS_11char_traitsIcEENS_9allocatorIcEEEENS_12__value_typeIS6_P6PersonEENS_4lessIS6_EELb1EEC2B8ue170006ESC_, symObjAddr: 0x1BFC, symBinAddr: 0x100005A64, symSize: 0x14 }
  - { offsetInCU: 0xF659, offset: 0xF659, size: 0x8, addend: 0x0, symName: __ZNSt3__16__treeINS_12__value_typeINS_12basic_stringIcNS_11char_traitsIcEENS_9allocatorIcEEEEP6PersonEENS_19__map_value_compareIS7_SA_NS_4lessIS7_EELb1EEENS5_ISA_EEEC2ERKSE_, symObjAddr: 0x1C10, symBinAddr: 0x100005A78, symSize: 0x7C }
  - { offsetInCU: 0xF694, offset: 0xF694, size: 0x8, addend: 0x0, symName: __ZNSt3__117__compressed_pairINS_15__tree_end_nodeIPNS_16__tree_node_baseIPvEEEENS_9allocatorINS_11__tree_nodeINS_12__value_typeINS_12basic_stringIcNS_11char_traitsIcEENS7_IcEEEEP6PersonEES3_EEEEEC1B8ue170006ILb1EvEEv, symObjAddr: 0x1C8C, symBinAddr: 0x100005AF4, symSize: 0x2C }
  - { offsetInCU: 0xF6CE, offset: 0xF6CE, size: 0x8, addend: 0x0, symName: __ZNSt3__117__compressed_pairImNS_19__map_value_compareINS_12basic_stringIcNS_11char_traitsIcEENS_9allocatorIcEEEENS_12__value_typeIS7_P6PersonEENS_4lessIS7_EELb1EEEEC1B8ue170006IiRKSE_EEOT_OT0_, symObjAddr: 0x1CB8, symBinAddr: 0x100005B20, symSize: 0x3C }
  - { offsetInCU: 0xF726, offset: 0xF726, size: 0x8, addend: 0x0, symName: __ZNSt3__117__compressed_pairINS_15__tree_end_nodeIPNS_16__tree_node_baseIPvEEEENS_9allocatorINS_11__tree_nodeINS_12__value_typeINS_12basic_stringIcNS_11char_traitsIcEENS7_IcEEEEP6PersonEES3_EEEEEC2B8ue170006ILb1EvEEv, symObjAddr: 0x1CF4, symBinAddr: 0x100005B5C, symSize: 0x34 }
  - { offsetInCU: 0xF75B, offset: 0xF75B, size: 0x8, addend: 0x0, symName: __ZNSt3__122__compressed_pair_elemINS_15__tree_end_nodeIPNS_16__tree_node_baseIPvEEEELi0ELb0EEC2B8ue170006ENS_16__value_init_tagE, symObjAddr: 0x1D28, symBinAddr: 0x100005B90, symSize: 0x2C }
  - { offsetInCU: 0xF790, offset: 0xF790, size: 0x8, addend: 0x0, symName: __ZNSt3__122__compressed_pair_elemINS_9allocatorINS_11__tree_nodeINS_12__value_typeINS_12basic_stringIcNS_11char_traitsIcEENS1_IcEEEEP6PersonEEPvEEEELi1ELb1EEC2B8ue170006ENS_16__value_init_tagE, symObjAddr: 0x1D54, symBinAddr: 0x100005BBC, symSize: 0x2C }
  - { offsetInCU: 0xF7C5, offset: 0xF7C5, size: 0x8, addend: 0x0, symName: __ZNSt3__115__tree_end_nodeIPNS_16__tree_node_baseIPvEEEC1B8ue170006Ev, symObjAddr: 0x1D80, symBinAddr: 0x100005BE8, symSize: 0x2C }
  - { offsetInCU: 0xF7EF, offset: 0xF7EF, size: 0x8, addend: 0x0, symName: __ZNSt3__115__tree_end_nodeIPNS_16__tree_node_baseIPvEEEC2B8ue170006Ev, symObjAddr: 0x1DAC, symBinAddr: 0x100005C14, symSize: 0x18 }
  - { offsetInCU: 0xF819, offset: 0xF819, size: 0x8, addend: 0x0, symName: __ZNSt3__19allocatorINS_11__tree_nodeINS_12__value_typeINS_12basic_stringIcNS_11char_traitsIcEENS0_IcEEEEP6PersonEEPvEEEC2B8ue170006Ev, symObjAddr: 0x1DC4, symBinAddr: 0x100005C2C, symSize: 0x2C }
  - { offsetInCU: 0xF843, offset: 0xF843, size: 0x8, addend: 0x0, symName: __ZNSt3__116__non_trivial_ifILb1ENS_9allocatorINS_11__tree_nodeINS_12__value_typeINS_12basic_stringIcNS_11char_traitsIcEENS1_IcEEEEP6PersonEEPvEEEEEC2B8ue170006Ev, symObjAddr: 0x1DF0, symBinAddr: 0x100005C58, symSize: 0x14 }
  - { offsetInCU: 0xF86D, offset: 0xF86D, size: 0x8, addend: 0x0, symName: __ZNSt3__117__compressed_pairImNS_19__map_value_compareINS_12basic_stringIcNS_11char_traitsIcEENS_9allocatorIcEEEENS_12__value_typeIS7_P6PersonEENS_4lessIS7_EELb1EEEEC2B8ue170006IiRKSE_EEOT_OT0_, symObjAddr: 0x1E04, symBinAddr: 0x100005C6C, symSize: 0x44 }
  - { offsetInCU: 0xF8C5, offset: 0xF8C5, size: 0x8, addend: 0x0, symName: __ZNSt3__122__compressed_pair_elemImLi0ELb0EEC2B8ue170006IivEEOT_, symObjAddr: 0x1E48, symBinAddr: 0x100005CB0, symSize: 0x24 }
  - { offsetInCU: 0xF907, offset: 0xF907, size: 0x8, addend: 0x0, symName: __ZNSt3__122__compressed_pair_elemINS_19__map_value_compareINS_12basic_stringIcNS_11char_traitsIcEENS_9allocatorIcEEEENS_12__value_typeIS7_P6PersonEENS_4lessIS7_EELb1EEELi1ELb1EEC2B8ue170006IRKSE_vEEOT_, symObjAddr: 0x1E6C, symBinAddr: 0x100005CD4, symSize: 0x18 }
  - { offsetInCU: 0xF949, offset: 0xF949, size: 0x8, addend: 0x0, symName: __ZNSt3__112basic_stringIcNS_11char_traitsIcEENS_9allocatorIcEEEC2B8ue170006Ev, symObjAddr: 0x1E84, symBinAddr: 0x100005CEC, symSize: 0x48 }
  - { offsetInCU: 0xF978, offset: 0xF978, size: 0x8, addend: 0x0, symName: __ZNSt3__117__compressed_pairINS_12basic_stringIcNS_11char_traitsIcEENS_9allocatorIcEEE5__repES5_EC1B8ue170006INS_18__default_init_tagESA_EEOT_OT0_, symObjAddr: 0x1ECC, symBinAddr: 0x100005D34, symSize: 0x3C }
  - { offsetInCU: 0xF9D0, offset: 0xF9D0, size: 0x8, addend: 0x0, symName: __ZNSt3__112basic_stringIcNS_11char_traitsIcEENS_9allocatorIcEEE14__default_initB8ue170006Ev, symObjAddr: 0x1F08, symBinAddr: 0x100005D70, symSize: 0x40 }
  - { offsetInCU: 0xF9F6, offset: 0xF9F6, size: 0x8, addend: 0x0, symName: __ZNSt3__117__compressed_pairINS_12basic_stringIcNS_11char_traitsIcEENS_9allocatorIcEEE5__repES5_EC2B8ue170006INS_18__default_init_tagESA_EEOT_OT0_, symObjAddr: 0x1F48, symBinAddr: 0x100005DB0, symSize: 0x3C }
  - { offsetInCU: 0xFA4E, offset: 0xFA4E, size: 0x8, addend: 0x0, symName: __ZNSt3__122__compressed_pair_elemINS_12basic_stringIcNS_11char_traitsIcEENS_9allocatorIcEEE5__repELi0ELb0EEC2B8ue170006ENS_18__default_init_tagE, symObjAddr: 0x1F84, symBinAddr: 0x100005DEC, symSize: 0x14 }
  - { offsetInCU: 0xFA83, offset: 0xFA83, size: 0x8, addend: 0x0, symName: __ZNSt3__122__compressed_pair_elemINS_9allocatorIcEELi1ELb1EEC2B8ue170006ENS_18__default_init_tagE, symObjAddr: 0x1F98, symBinAddr: 0x100005E00, symSize: 0x2C }
  - { offsetInCU: 0xFAB8, offset: 0xFAB8, size: 0x8, addend: 0x0, symName: __ZNSt3__19allocatorIcEC2B8ue170006Ev, symObjAddr: 0x1FC4, symBinAddr: 0x100005E2C, symSize: 0x2C }
  - { offsetInCU: 0xFAE2, offset: 0xFAE2, size: 0x8, addend: 0x0, symName: __ZNSt3__116__non_trivial_ifILb1ENS_9allocatorIcEEEC2B8ue170006Ev, symObjAddr: 0x1FF0, symBinAddr: 0x100005E58, symSize: 0x14 }
  - { offsetInCU: 0xFB0C, offset: 0xFB0C, size: 0x8, addend: 0x0, symName: __ZNSt3__117__compressed_pairINS_12basic_stringIcNS_11char_traitsIcEENS_9allocatorIcEEE5__repES5_E5firstB8ue170006Ev, symObjAddr: 0x2004, symBinAddr: 0x100005E6C, symSize: 0x24 }
  - { offsetInCU: 0xFB32, offset: 0xFB32, size: 0x8, addend: 0x0, symName: __ZNSt3__122__compressed_pair_elemINS_12basic_stringIcNS_11char_traitsIcEENS_9allocatorIcEEE5__repELi0ELb0EE5__getB8ue170006Ev, symObjAddr: 0x2028, symBinAddr: 0x100005E90, symSize: 0x14 }
  - { offsetInCU: 0xFB58, offset: 0xFB58, size: 0x8, addend: 0x0, symName: __ZNKSt3__19basic_iosIcNS_11char_traitsIcEEE5widenB8ue170006Ec, symObjAddr: 0x203C, symBinAddr: 0x100005EA4, symSize: 0x84 }
  - { offsetInCU: 0xFBC6, offset: 0xFBC6, size: 0x8, addend: 0x0, symName: __ZNKSt3__15ctypeIcE5widenB8ue170006Ec, symObjAddr: 0x20EC, symBinAddr: 0x100005F54, symSize: 0x38 }
  - { offsetInCU: 0xFBFB, offset: 0xFBFB, size: 0x8, addend: 0x0, symName: __ZNKSt3__19basic_iosIcNS_11char_traitsIcEEE4failB8ue170006Ev, symObjAddr: 0x2124, symBinAddr: 0x100005F8C, symSize: 0x28 }
  - { offsetInCU: 0xFC21, offset: 0xFC21, size: 0x8, addend: 0x0, symName: __ZNKSt3__18ios_base4failB8ue170006Ev, symObjAddr: 0x214C, symBinAddr: 0x100005FB4, symSize: 0x28 }
  - { offsetInCU: 0xFC49, offset: 0xFC49, size: 0x8, addend: 0x0, symName: __ZNKSt3__112basic_stringIcNS_11char_traitsIcEENS_9allocatorIcEEE4sizeB8ue170006Ev, symObjAddr: 0x2174, symBinAddr: 0x100005FDC, symSize: 0x54 }
  - { offsetInCU: 0xFC6F, offset: 0xFC6F, size: 0x8, addend: 0x0, symName: __ZNKSt3__112basic_stringIcNS_11char_traitsIcEENS_9allocatorIcEEE9__is_longB8ue170006Ev, symObjAddr: 0x21C8, symBinAddr: 0x100006030, symSize: 0x38 }
  - { offsetInCU: 0xFC95, offset: 0xFC95, size: 0x8, addend: 0x0, symName: __ZNKSt3__112basic_stringIcNS_11char_traitsIcEENS_9allocatorIcEEE15__get_long_sizeB8ue170006Ev, symObjAddr: 0x2200, symBinAddr: 0x100006068, symSize: 0x28 }
  - { offsetInCU: 0xFCBB, offset: 0xFCBB, size: 0x8, addend: 0x0, symName: __ZNKSt3__112basic_stringIcNS_11char_traitsIcEENS_9allocatorIcEEE16__get_short_sizeB8ue170006Ev, symObjAddr: 0x2228, symBinAddr: 0x100006090, symSize: 0x34 }
  - { offsetInCU: 0xFCE1, offset: 0xFCE1, size: 0x8, addend: 0x0, symName: __ZNKSt3__117__compressed_pairINS_12basic_stringIcNS_11char_traitsIcEENS_9allocatorIcEEE5__repES5_E5firstB8ue170006Ev, symObjAddr: 0x225C, symBinAddr: 0x1000060C4, symSize: 0x24 }
  - { offsetInCU: 0xFD07, offset: 0xFD07, size: 0x8, addend: 0x0, symName: __ZNKSt3__122__compressed_pair_elemINS_12basic_stringIcNS_11char_traitsIcEENS_9allocatorIcEEE5__repELi0ELb0EE5__getB8ue170006Ev, symObjAddr: 0x2280, symBinAddr: 0x1000060E8, symSize: 0x14 }
  - { offsetInCU: 0xFD2D, offset: 0xFD2D, size: 0x8, addend: 0x0, symName: __ZNSt3__112basic_stringIcNS_11char_traitsIcEENS_9allocatorIcEEE13__get_pointerB8ue170006Ev, symObjAddr: 0x2294, symBinAddr: 0x1000060FC, symSize: 0x54 }
  - { offsetInCU: 0xFD53, offset: 0xFD53, size: 0x8, addend: 0x0, symName: __ZNSt3__112basic_stringIcNS_11char_traitsIcEENS_9allocatorIcEEE18__get_long_pointerB8ue170006Ev, symObjAddr: 0x22E8, symBinAddr: 0x100006150, symSize: 0x28 }
  - { offsetInCU: 0xFD79, offset: 0xFD79, size: 0x8, addend: 0x0, symName: __ZNSt3__112basic_stringIcNS_11char_traitsIcEENS_9allocatorIcEEE19__get_short_pointerB8ue170006Ev, symObjAddr: 0x2310, symBinAddr: 0x100006178, symSize: 0x28 }
  - { offsetInCU: 0xFD9F, offset: 0xFD9F, size: 0x8, addend: 0x0, symName: __ZNSt3__114pointer_traitsIPcE10pointer_toB8ue170006ERc, symObjAddr: 0x2338, symBinAddr: 0x1000061A0, symSize: 0x14 }
  - { offsetInCU: 0xFDC2, offset: 0xFDC2, size: 0x8, addend: 0x0, symName: __ZNSt3__19basic_iosIcNS_11char_traitsIcEEEC2B8ue170006Ev, symObjAddr: 0x234C, symBinAddr: 0x1000061B4, symSize: 0x44 }
  - { offsetInCU: 0xFDEC, offset: 0xFDEC, size: 0x8, addend: 0x0, symName: __ZNSt3__113basic_istreamIcNS_11char_traitsIcEEEC2B8ue170006EPNS_15basic_streambufIcS2_EE, symObjAddr: 0x2390, symBinAddr: 0x1000061F8, symSize: 0x64 }
  - { offsetInCU: 0xFE31, offset: 0xFE31, size: 0x8, addend: 0x0, symName: __ZNSt3__115basic_stringbufIcNS_11char_traitsIcEENS_9allocatorIcEEEC1B8ue170006ERKNS_12basic_stringIcS2_S4_EEj, symObjAddr: 0x23F4, symBinAddr: 0x10000625C, symSize: 0x3C }
  - { offsetInCU: 0xFE79, offset: 0xFE79, size: 0x8, addend: 0x0, symName: __ZNSt3__18ios_baseC2B8ue170006Ev, symObjAddr: 0x2430, symBinAddr: 0x100006298, symSize: 0x24 }
  - { offsetInCU: 0xFEA3, offset: 0xFEA3, size: 0x8, addend: 0x0, symName: __ZNSt3__19basic_iosIcNS_11char_traitsIcEEE4initB8ue170006EPNS_15basic_streambufIcS2_EE, symObjAddr: 0x2454, symBinAddr: 0x1000062BC, symSize: 0x44 }
  - { offsetInCU: 0xFEDA, offset: 0xFEDA, size: 0x8, addend: 0x0, symName: __ZNSt3__111char_traitsIcE3eofB8ue170006Ev, symObjAddr: 0x2498, symBinAddr: 0x100006300, symSize: 0x8 }
  - { offsetInCU: 0xFEEE, offset: 0xFEEE, size: 0x8, addend: 0x0, symName: __ZNSt3__115basic_stringbufIcNS_11char_traitsIcEENS_9allocatorIcEEEC2B8ue170006ERKNS_12basic_stringIcS2_S4_EEj, symObjAddr: 0x24A0, symBinAddr: 0x100006308, symSize: 0xB4 }
  - { offsetInCU: 0xFF36, offset: 0xFF36, size: 0x8, addend: 0x0, symName: __ZNKSt3__112basic_stringIcNS_11char_traitsIcEENS_9allocatorIcEEE13get_allocatorB8ue170006Ev, symObjAddr: 0x2554, symBinAddr: 0x1000063BC, symSize: 0x24 }
  - { offsetInCU: 0xFF5C, offset: 0xFF5C, size: 0x8, addend: 0x0, symName: __ZNSt3__112basic_stringIcNS_11char_traitsIcEENS_9allocatorIcEEEC1B8ue170006ERKS4_, symObjAddr: 0x2578, symBinAddr: 0x1000063E0, symSize: 0x34 }
  - { offsetInCU: 0xFF95, offset: 0xFF95, size: 0x8, addend: 0x0, symName: __ZNKSt3__112basic_stringIcNS_11char_traitsIcEENS_9allocatorIcEEE7__allocB8ue170006Ev, symObjAddr: 0x25AC, symBinAddr: 0x100006414, symSize: 0x24 }
  - { offsetInCU: 0xFFBB, offset: 0xFFBB, size: 0x8, addend: 0x0, symName: __ZNKSt3__117__compressed_pairINS_12basic_stringIcNS_11char_traitsIcEENS_9allocatorIcEEE5__repES5_E6secondB8ue170006Ev, symObjAddr: 0x25D0, symBinAddr: 0x100006438, symSize: 0x24 }
  - { offsetInCU: 0xFFE1, offset: 0xFFE1, size: 0x8, addend: 0x0, symName: __ZNKSt3__122__compressed_pair_elemINS_9allocatorIcEELi1ELb1EE5__getB8ue170006Ev, symObjAddr: 0x25F4, symBinAddr: 0x10000645C, symSize: 0x14 }
  - { offsetInCU: 0x10007, offset: 0x10007, size: 0x8, addend: 0x0, symName: __ZNSt3__112basic_stringIcNS_11char_traitsIcEENS_9allocatorIcEEEC2B8ue170006ERKS4_, symObjAddr: 0x2608, symBinAddr: 0x100006470, symSize: 0x48 }
  - { offsetInCU: 0x10040, offset: 0x10040, size: 0x8, addend: 0x0, symName: __ZNSt3__117__compressed_pairINS_12basic_stringIcNS_11char_traitsIcEENS_9allocatorIcEEE5__repES5_EC1B8ue170006INS_18__default_init_tagERKS5_EEOT_OT0_, symObjAddr: 0x2650, symBinAddr: 0x1000064B8, symSize: 0x3C }
  - { offsetInCU: 0x10098, offset: 0x10098, size: 0x8, addend: 0x0, symName: __ZNSt3__117__compressed_pairINS_12basic_stringIcNS_11char_traitsIcEENS_9allocatorIcEEE5__repES5_EC2B8ue170006INS_18__default_init_tagERKS5_EEOT_OT0_, symObjAddr: 0x268C, symBinAddr: 0x1000064F4, symSize: 0x40 }
  - { offsetInCU: 0x100F0, offset: 0x100F0, size: 0x8, addend: 0x0, symName: __ZNSt3__122__compressed_pair_elemINS_9allocatorIcEELi1ELb1EEC2B8ue170006IRKS2_vEEOT_, symObjAddr: 0x26CC, symBinAddr: 0x100006534, symSize: 0x18 }
  - { offsetInCU: 0x10150, offset: 0x10150, size: 0x8, addend: 0x0, symName: __ZNKSt3__113basic_istreamIcNS_11char_traitsIcEEE6sentrycvbB8ue170006Ev, symObjAddr: 0x26E4, symBinAddr: 0x10000654C, symSize: 0x1C }
  - { offsetInCU: 0x10176, offset: 0x10176, size: 0x8, addend: 0x0, symName: __ZNSt3__112basic_stringIcNS_11char_traitsIcEENS_9allocatorIcEEE5clearB8ue170006Ev, symObjAddr: 0x2700, symBinAddr: 0x100006568, symSize: 0x78 }
  - { offsetInCU: 0x1019E, offset: 0x1019E, size: 0x8, addend: 0x0, symName: __ZNKSt3__19basic_iosIcNS_11char_traitsIcEEE5rdbufB8ue170006Ev, symObjAddr: 0x2778, symBinAddr: 0x1000065E0, symSize: 0x24 }
  - { offsetInCU: 0x101C6, offset: 0x101C6, size: 0x8, addend: 0x0, symName: __ZNSt3__115basic_streambufIcNS_11char_traitsIcEEE6sbumpcB8ue170006Ev, symObjAddr: 0x279C, symBinAddr: 0x100006604, symSize: 0x78 }
  - { offsetInCU: 0x101EC, offset: 0x101EC, size: 0x8, addend: 0x0, symName: __ZNSt3__111char_traitsIcE11eq_int_typeB8ue170006Eii, symObjAddr: 0x2814, symBinAddr: 0x10000667C, symSize: 0x28 }
  - { offsetInCU: 0x1021F, offset: 0x1021F, size: 0x8, addend: 0x0, symName: __ZNSt3__111char_traitsIcE12to_char_typeB8ue170006Ei, symObjAddr: 0x283C, symBinAddr: 0x1000066A4, symSize: 0x18 }
  - { offsetInCU: 0x10242, offset: 0x10242, size: 0x8, addend: 0x0, symName: __ZNSt3__111char_traitsIcE2eqEcc, symObjAddr: 0x2854, symBinAddr: 0x1000066BC, symSize: 0x28 }
  - { offsetInCU: 0x10273, offset: 0x10273, size: 0x8, addend: 0x0, symName: __ZNKSt3__112basic_stringIcNS_11char_traitsIcEENS_9allocatorIcEEE8max_sizeB8ue170006Ev, symObjAddr: 0x287C, symBinAddr: 0x1000066E4, symSize: 0xAC }
  - { offsetInCU: 0x102C5, offset: 0x102C5, size: 0x8, addend: 0x0, symName: __ZNSt3__18ios_base18__setstate_nothrowB8ue170006Ej, symObjAddr: 0x2928, symBinAddr: 0x100006790, symSize: 0x64 }
  - { offsetInCU: 0x102FA, offset: 0x102FA, size: 0x8, addend: 0x0, symName: __ZNKSt3__19basic_iosIcNS_11char_traitsIcEEE10exceptionsB8ue170006Ev, symObjAddr: 0x298C, symBinAddr: 0x1000067F4, symSize: 0x24 }
  - { offsetInCU: 0x10320, offset: 0x10320, size: 0x8, addend: 0x0, symName: __ZNSt3__19basic_iosIcNS_11char_traitsIcEEE8setstateB8ue170006Ej, symObjAddr: 0x29B0, symBinAddr: 0x100006818, symSize: 0x2C }
  - { offsetInCU: 0x10355, offset: 0x10355, size: 0x8, addend: 0x0, symName: __ZNSt3__111char_traitsIcE6assignB8ue170006ERcRKc, symObjAddr: 0x29DC, symBinAddr: 0x100006844, symSize: 0x24 }
  - { offsetInCU: 0x10386, offset: 0x10386, size: 0x8, addend: 0x0, symName: __ZNSt3__112basic_stringIcNS_11char_traitsIcEENS_9allocatorIcEEE15__set_long_sizeB8ue170006Em, symObjAddr: 0x2A00, symBinAddr: 0x100006868, symSize: 0x38 }
  - { offsetInCU: 0x103BB, offset: 0x103BB, size: 0x8, addend: 0x0, symName: __ZNSt3__112basic_stringIcNS_11char_traitsIcEENS_9allocatorIcEEE16__set_short_sizeB8ue170006Em, symObjAddr: 0x2A38, symBinAddr: 0x1000068A0, symSize: 0x78 }
  - { offsetInCU: 0x103F0, offset: 0x103F0, size: 0x8, addend: 0x0, symName: __ZNKSt3__18ios_base5rdbufB8ue170006Ev, symObjAddr: 0x2AB0, symBinAddr: 0x100006918, symSize: 0x18 }
  - { offsetInCU: 0x10416, offset: 0x10416, size: 0x8, addend: 0x0, symName: __ZNSt3__111char_traitsIcE11to_int_typeB8ue170006Ec, symObjAddr: 0x2AC8, symBinAddr: 0x100006930, symSize: 0x14 }
  - { offsetInCU: 0x10444, offset: 0x10444, size: 0x8, addend: 0x0, symName: __ZNSt3__116allocator_traitsINS_9allocatorIcEEE8max_sizeB8ue170006IS2_vEEmRKS2_, symObjAddr: 0x2ADC, symBinAddr: 0x100006944, symSize: 0x24 }
  - { offsetInCU: 0x10472, offset: 0x10472, size: 0x8, addend: 0x0, symName: __ZNSt3__114numeric_limitsImE3maxB8ue170006Ev, symObjAddr: 0x2B00, symBinAddr: 0x100006968, symSize: 0x14 }
  - { offsetInCU: 0x10486, offset: 0x10486, size: 0x8, addend: 0x0, symName: __ZNKSt3__19allocatorIcE8max_sizeB8ue170006Ev, symObjAddr: 0x2B14, symBinAddr: 0x10000697C, symSize: 0x14 }
  - { offsetInCU: 0x104AC, offset: 0x104AC, size: 0x8, addend: 0x0, symName: __ZNSt3__123__libcpp_numeric_limitsImLb1EE3maxB8ue170006Ev, symObjAddr: 0x2B28, symBinAddr: 0x100006990, symSize: 0x8 }
  - { offsetInCU: 0x104C0, offset: 0x104C0, size: 0x8, addend: 0x0, symName: __ZNKSt3__18ios_base10exceptionsB8ue170006Ev, symObjAddr: 0x2B30, symBinAddr: 0x100006998, symSize: 0x18 }
  - { offsetInCU: 0x104E8, offset: 0x104E8, size: 0x8, addend: 0x0, symName: __ZNSt3__18ios_base8setstateB8ue170006Ej, symObjAddr: 0x2B48, symBinAddr: 0x1000069B0, symSize: 0x34 }
  - { offsetInCU: 0x1051F, offset: 0x1051F, size: 0x8, addend: 0x0, symName: __ZNSt3__111char_traitsIcE6lengthB8ue170006EPKc, symObjAddr: 0x2B7C, symBinAddr: 0x1000069E4, symSize: 0x34 }
  - { offsetInCU: 0x10556, offset: 0x10556, size: 0x8, addend: 0x0, symName: __ZNSt3__16__treeINS_12__value_typeINS_12basic_stringIcNS_11char_traitsIcEENS_9allocatorIcEEEEP6PersonEENS_19__map_value_compareIS7_SA_NS_4lessIS7_EELb1EEENS5_ISA_EEE25__emplace_unique_key_argsIS7_JRKNS_21piecewise_construct_tENS_5tupleIJRKS7_EEENSL_IJEEEEEENS_4pairINS_15__tree_iteratorISA_PNS_11__tree_nodeISA_PvEElEEbEERKT_DpOT0_, symObjAddr: 0x2BD4, symBinAddr: 0x100006A3C, symSize: 0x100 }
  - { offsetInCU: 0x1062C, offset: 0x1062C, size: 0x8, addend: 0x0, symName: __ZNSt3__16__treeINS_12__value_typeINS_12basic_stringIcNS_11char_traitsIcEENS_9allocatorIcEEEEP6PersonEENS_19__map_value_compareIS7_SA_NS_4lessIS7_EELb1EEENS5_ISA_EEE12__find_equalIS7_EERPNS_16__tree_node_baseIPvEERPNS_15__tree_end_nodeISL_EERKT_, symObjAddr: 0x2D04, symBinAddr: 0x100006B6C, symSize: 0x184 }
  - { offsetInCU: 0x10699, offset: 0x10699, size: 0x8, addend: 0x0, symName: __ZNSt3__16__treeINS_12__value_typeINS_12basic_stringIcNS_11char_traitsIcEENS_9allocatorIcEEEEP6PersonEENS_19__map_value_compareIS7_SA_NS_4lessIS7_EELb1EEENS5_ISA_EEE16__construct_nodeIJRKNS_21piecewise_construct_tENS_5tupleIJRKS7_EEENSL_IJEEEEEENS_10unique_ptrINS_11__tree_nodeISA_PvEENS_22__tree_node_destructorINS5_IST_EEEEEEDpOT_, symObjAddr: 0x2E88, symBinAddr: 0x100006CF0, symSize: 0x118 }
  - { offsetInCU: 0x10722, offset: 0x10722, size: 0x8, addend: 0x0, symName: __ZNSt3__16__treeINS_12__value_typeINS_12basic_stringIcNS_11char_traitsIcEENS_9allocatorIcEEEEP6PersonEENS_19__map_value_compareIS7_SA_NS_4lessIS7_EELb1EEENS5_ISA_EEE16__insert_node_atEPNS_15__tree_end_nodeIPNS_16__tree_node_baseIPvEEEERSL_SL_, symObjAddr: 0x2FA0, symBinAddr: 0x100006E08, symSize: 0xCC }
  - { offsetInCU: 0x10777, offset: 0x10777, size: 0x8, addend: 0x0, symName: __ZNKSt3__110unique_ptrINS_11__tree_nodeINS_12__value_typeINS_12basic_stringIcNS_11char_traitsIcEENS_9allocatorIcEEEEP6PersonEEPvEENS_22__tree_node_destructorINS6_ISD_EEEEE3getB8ue170006Ev, symObjAddr: 0x306C, symBinAddr: 0x100006ED4, symSize: 0x28 }
  - { offsetInCU: 0x1079D, offset: 0x1079D, size: 0x8, addend: 0x0, symName: __ZNSt3__110unique_ptrINS_11__tree_nodeINS_12__value_typeINS_12basic_stringIcNS_11char_traitsIcEENS_9allocatorIcEEEEP6PersonEEPvEENS_22__tree_node_destructorINS6_ISD_EEEEE7releaseB8ue170006Ev, symObjAddr: 0x3094, symBinAddr: 0x100006EFC, symSize: 0x44 }
  - { offsetInCU: 0x107D2, offset: 0x107D2, size: 0x8, addend: 0x0, symName: __ZNSt3__110unique_ptrINS_11__tree_nodeINS_12__value_typeINS_12basic_stringIcNS_11char_traitsIcEENS_9allocatorIcEEEEP6PersonEEPvEENS_22__tree_node_destructorINS6_ISD_EEEEED1B8ue170006Ev, symObjAddr: 0x30D8, symBinAddr: 0x100006F40, symSize: 0x2C }
  - { offsetInCU: 0x107FC, offset: 0x107FC, size: 0x8, addend: 0x0, symName: __ZNSt3__115__tree_iteratorINS_12__value_typeINS_12basic_stringIcNS_11char_traitsIcEENS_9allocatorIcEEEEP6PersonEEPNS_11__tree_nodeISA_PvEElEC1B8ue170006ESE_, symObjAddr: 0x3104, symBinAddr: 0x100006F6C, symSize: 0x34 }
  - { offsetInCU: 0x1083A, offset: 0x1083A, size: 0x8, addend: 0x0, symName: __ZNSt3__14pairINS_15__tree_iteratorINS_12__value_typeINS_12basic_stringIcNS_11char_traitsIcEENS_9allocatorIcEEEEP6PersonEEPNS_11__tree_nodeISB_PvEElEEbEC1B8ue170006ISG_RbLSD_0EEEOT_OT0_, symObjAddr: 0x3138, symBinAddr: 0x100006FA0, symSize: 0x3C }
  - { offsetInCU: 0x10898, offset: 0x10898, size: 0x8, addend: 0x0, symName: __ZNKSt3__16__treeINS_12__value_typeINS_12basic_stringIcNS_11char_traitsIcEENS_9allocatorIcEEEEP6PersonEENS_19__map_value_compareIS7_SA_NS_4lessIS7_EELb1EEENS5_ISA_EEE10__root_ptrB8ue170006Ev, symObjAddr: 0x3174, symBinAddr: 0x100006FDC, symSize: 0x24 }
  - { offsetInCU: 0x108BE, offset: 0x108BE, size: 0x8, addend: 0x0, symName: __ZNSt3__16__treeINS_12__value_typeINS_12basic_stringIcNS_11char_traitsIcEENS_9allocatorIcEEEEP6PersonEENS_19__map_value_compareIS7_SA_NS_4lessIS7_EELb1EEENS5_ISA_EEE10value_compB8ue170006Ev, symObjAddr: 0x3198, symBinAddr: 0x100007000, symSize: 0x28 }
  - { offsetInCU: 0x108E4, offset: 0x108E4, size: 0x8, addend: 0x0, symName: __ZNKSt3__119__map_value_compareINS_12basic_stringIcNS_11char_traitsIcEENS_9allocatorIcEEEENS_12__value_typeIS6_P6PersonEENS_4lessIS6_EELb1EEclB8ue170006ERKS6_RKSA_, symObjAddr: 0x31C0, symBinAddr: 0x100007028, symSize: 0x50 }
  - { offsetInCU: 0x10928, offset: 0x10928, size: 0x8, addend: 0x0, symName: __ZNKSt3__119__map_value_compareINS_12basic_stringIcNS_11char_traitsIcEENS_9allocatorIcEEEENS_12__value_typeIS6_P6PersonEENS_4lessIS6_EELb1EEclB8ue170006ERKSA_RKS6_, symObjAddr: 0x3210, symBinAddr: 0x100007078, symSize: 0x48 }
  - { offsetInCU: 0x1096C, offset: 0x1096C, size: 0x8, addend: 0x0, symName: __ZNSt3__117__compressed_pairImNS_19__map_value_compareINS_12basic_stringIcNS_11char_traitsIcEENS_9allocatorIcEEEENS_12__value_typeIS7_P6PersonEENS_4lessIS7_EELb1EEEE6secondB8ue170006Ev, symObjAddr: 0x3258, symBinAddr: 0x1000070C0, symSize: 0x24 }
  - { offsetInCU: 0x10992, offset: 0x10992, size: 0x8, addend: 0x0, symName: __ZNSt3__122__compressed_pair_elemINS_19__map_value_compareINS_12basic_stringIcNS_11char_traitsIcEENS_9allocatorIcEEEENS_12__value_typeIS7_P6PersonEENS_4lessIS7_EELb1EEELi1ELb1EE5__getB8ue170006Ev, symObjAddr: 0x327C, symBinAddr: 0x1000070E4, symSize: 0x14 }
  - { offsetInCU: 0x109B8, offset: 0x109B8, size: 0x8, addend: 0x0, symName: __ZNKSt3__14lessINS_12basic_stringIcNS_11char_traitsIcEENS_9allocatorIcEEEEEclB8ue170006ERKS6_S9_, symObjAddr: 0x3290, symBinAddr: 0x1000070F8, symSize: 0x34 }
  - { offsetInCU: 0x109FC, offset: 0x109FC, size: 0x8, addend: 0x0, symName: __ZNKSt3__112__value_typeINS_12basic_stringIcNS_11char_traitsIcEENS_9allocatorIcEEEEP6PersonE11__get_valueB8ue170006Ev, symObjAddr: 0x32C4, symBinAddr: 0x10000712C, symSize: 0x14 }
  - { offsetInCU: 0x10A22, offset: 0x10A22, size: 0x8, addend: 0x0, symName: __ZNKSt3__112basic_stringIcNS_11char_traitsIcEENS_9allocatorIcEEE7compareB8ue170006ERKS5_, symObjAddr: 0x3310, symBinAddr: 0x100007178, symSize: 0x4C }
  - { offsetInCU: 0x10A59, offset: 0x10A59, size: 0x8, addend: 0x0, symName: __ZNKSt3__112basic_stringIcNS_11char_traitsIcEENS_9allocatorIcEEE7compareINS_17basic_string_viewIcS2_EELi0EEEiRKT_, symObjAddr: 0x335C, symBinAddr: 0x1000071C4, symSize: 0x12C }
  - { offsetInCU: 0x10ADC, offset: 0x10ADC, size: 0x8, addend: 0x0, symName: __ZNKSt3__112basic_stringIcNS_11char_traitsIcEENS_9allocatorIcEEEcvNS_17basic_string_viewIcS2_EEB8ue170006Ev, symObjAddr: 0x3488, symBinAddr: 0x1000072F0, symSize: 0x50 }
  - { offsetInCU: 0x10B02, offset: 0x10B02, size: 0x8, addend: 0x0, symName: __ZNKSt3__117basic_string_viewIcNS_11char_traitsIcEEE4sizeB8ue170006Ev, symObjAddr: 0x34D8, symBinAddr: 0x100007340, symSize: 0x18 }
  - { offsetInCU: 0x10B28, offset: 0x10B28, size: 0x8, addend: 0x0, symName: __ZNSt3__111char_traitsIcE7compareB8ue170006EPKcS3_m, symObjAddr: 0x34F0, symBinAddr: 0x100007358, symSize: 0x34 }
  - { offsetInCU: 0x10B67, offset: 0x10B67, size: 0x8, addend: 0x0, symName: __ZNKSt3__112basic_stringIcNS_11char_traitsIcEENS_9allocatorIcEEE4dataB8ue170006Ev, symObjAddr: 0x3524, symBinAddr: 0x10000738C, symSize: 0x28 }
  - { offsetInCU: 0x10B8D, offset: 0x10B8D, size: 0x8, addend: 0x0, symName: __ZNKSt3__117basic_string_viewIcNS_11char_traitsIcEEE4dataB8ue170006Ev, symObjAddr: 0x354C, symBinAddr: 0x1000073B4, symSize: 0x18 }
  - { offsetInCU: 0x10BB3, offset: 0x10BB3, size: 0x8, addend: 0x0, symName: __ZNKSt3__112basic_stringIcNS_11char_traitsIcEENS_9allocatorIcEEE13__get_pointerB8ue170006Ev, symObjAddr: 0x35A4, symBinAddr: 0x10000740C, symSize: 0x54 }
  - { offsetInCU: 0x10BD9, offset: 0x10BD9, size: 0x8, addend: 0x0, symName: __ZNKSt3__112basic_stringIcNS_11char_traitsIcEENS_9allocatorIcEEE18__get_long_pointerB8ue170006Ev, symObjAddr: 0x35F8, symBinAddr: 0x100007460, symSize: 0x28 }
  - { offsetInCU: 0x10BFF, offset: 0x10BFF, size: 0x8, addend: 0x0, symName: __ZNKSt3__112basic_stringIcNS_11char_traitsIcEENS_9allocatorIcEEE19__get_short_pointerB8ue170006Ev, symObjAddr: 0x3620, symBinAddr: 0x100007488, symSize: 0x28 }
  - { offsetInCU: 0x10C25, offset: 0x10C25, size: 0x8, addend: 0x0, symName: __ZNSt3__114pointer_traitsIPKcE10pointer_toB8ue170006ERS1_, symObjAddr: 0x3648, symBinAddr: 0x1000074B0, symSize: 0x14 }
  - { offsetInCU: 0x10C52, offset: 0x10C52, size: 0x8, addend: 0x0, symName: __ZNKSt3__16__lessIvvEclB8ue170006ImmEEbRKT_RKT0_, symObjAddr: 0x36B0, symBinAddr: 0x100007518, symSize: 0x34 }
  - { offsetInCU: 0x10CA6, offset: 0x10CA6, size: 0x8, addend: 0x0, symName: __ZNSt3__117basic_string_viewIcNS_11char_traitsIcEEEC1B8ue170006EPKcm, symObjAddr: 0x36E4, symBinAddr: 0x10000754C, symSize: 0x3C }
  - { offsetInCU: 0x10CEE, offset: 0x10CEE, size: 0x8, addend: 0x0, symName: __ZNSt3__117basic_string_viewIcNS_11char_traitsIcEEEC2B8ue170006EPKcm, symObjAddr: 0x3720, symBinAddr: 0x100007588, symSize: 0x2C }
  - { offsetInCU: 0x10D36, offset: 0x10D36, size: 0x8, addend: 0x0, symName: __ZNSt3__116allocator_traitsINS_9allocatorINS_11__tree_nodeINS_12__value_typeINS_12basic_stringIcNS_11char_traitsIcEENS1_IcEEEEP6PersonEEPvEEEEE8allocateB8ue170006ERSE_m, symObjAddr: 0x374C, symBinAddr: 0x1000075B4, symSize: 0x2C }
  - { offsetInCU: 0x10D69, offset: 0x10D69, size: 0x8, addend: 0x0, symName: __ZNSt3__122__tree_node_destructorINS_9allocatorINS_11__tree_nodeINS_12__value_typeINS_12basic_stringIcNS_11char_traitsIcEENS1_IcEEEEP6PersonEEPvEEEEEC1B8ue170006ERSE_b, symObjAddr: 0x3778, symBinAddr: 0x1000075E0, symSize: 0x48 }
  - { offsetInCU: 0x10DB6, offset: 0x10DB6, size: 0x8, addend: 0x0, symName: __ZNSt3__110unique_ptrINS_11__tree_nodeINS_12__value_typeINS_12basic_stringIcNS_11char_traitsIcEENS_9allocatorIcEEEEP6PersonEEPvEENS_22__tree_node_destructorINS6_ISD_EEEEEC1B8ue170006ILb1EvEEPSD_NS_16__dependent_typeINS_27__unique_ptr_deleter_sfinaeISG_EEXT_EE20__good_rval_ref_typeE, symObjAddr: 0x37C0, symBinAddr: 0x100007628, symSize: 0x3C }
  - { offsetInCU: 0x10E07, offset: 0x10E07, size: 0x8, addend: 0x0, symName: __ZNSt3__116allocator_traitsINS_9allocatorINS_11__tree_nodeINS_12__value_typeINS_12basic_stringIcNS_11char_traitsIcEENS1_IcEEEEP6PersonEEPvEEEEE9constructB8ue170006INS_4pairIKS8_SA_EEJRKNS_21piecewise_construct_tENS_5tupleIJRSI_EEENSN_IJEEEEvEEvRSE_PT_DpOT0_, symObjAddr: 0x37FC, symBinAddr: 0x100007664, symSize: 0x44 }
  - { offsetInCU: 0x10E86, offset: 0x10E86, size: 0x8, addend: 0x0, symName: __ZNKSt3__110unique_ptrINS_11__tree_nodeINS_12__value_typeINS_12basic_stringIcNS_11char_traitsIcEENS_9allocatorIcEEEEP6PersonEEPvEENS_22__tree_node_destructorINS6_ISD_EEEEEptB8ue170006Ev, symObjAddr: 0x3840, symBinAddr: 0x1000076A8, symSize: 0x28 }
  - { offsetInCU: 0x10EAC, offset: 0x10EAC, size: 0x8, addend: 0x0, symName: __ZNSt3__110unique_ptrINS_11__tree_nodeINS_12__value_typeINS_12basic_stringIcNS_11char_traitsIcEENS_9allocatorIcEEEEP6PersonEEPvEENS_22__tree_node_destructorINS6_ISD_EEEEE11get_deleterB8ue170006Ev, symObjAddr: 0x3868, symBinAddr: 0x1000076D0, symSize: 0x24 }
  - { offsetInCU: 0x10ED2, offset: 0x10ED2, size: 0x8, addend: 0x0, symName: __ZNSt3__19allocatorINS_11__tree_nodeINS_12__value_typeINS_12basic_stringIcNS_11char_traitsIcEENS0_IcEEEEP6PersonEEPvEEE8allocateB8ue170006Em, symObjAddr: 0x388C, symBinAddr: 0x1000076F4, symSize: 0x58 }
  - { offsetInCU: 0x10F10, offset: 0x10F10, size: 0x8, addend: 0x0, symName: __ZNSt3__116allocator_traitsINS_9allocatorINS_11__tree_nodeINS_12__value_typeINS_12basic_stringIcNS_11char_traitsIcEENS1_IcEEEEP6PersonEEPvEEEEE8max_sizeB8ue170006ISE_vEEmRKSE_, symObjAddr: 0x38E4, symBinAddr: 0x10000774C, symSize: 0x24 }
  - { offsetInCU: 0x10F3E, offset: 0x10F3E, size: 0x8, addend: 0x0, symName: __ZNKSt3__19allocatorINS_11__tree_nodeINS_12__value_typeINS_12basic_stringIcNS_11char_traitsIcEENS0_IcEEEEP6PersonEEPvEEE8max_sizeB8ue170006Ev, symObjAddr: 0x3964, symBinAddr: 0x1000077CC, symSize: 0x14 }
  - { offsetInCU: 0x10F64, offset: 0x10F64, size: 0x8, addend: 0x0, symName: __ZNSt3__122__tree_node_destructorINS_9allocatorINS_11__tree_nodeINS_12__value_typeINS_12basic_stringIcNS_11char_traitsIcEENS1_IcEEEEP6PersonEEPvEEEEEC2B8ue170006ERSE_b, symObjAddr: 0x399C, symBinAddr: 0x100007804, symSize: 0x38 }
  - { offsetInCU: 0x10FAC, offset: 0x10FAC, size: 0x8, addend: 0x0, symName: __ZNSt3__110unique_ptrINS_11__tree_nodeINS_12__value_typeINS_12basic_stringIcNS_11char_traitsIcEENS_9allocatorIcEEEEP6PersonEEPvEENS_22__tree_node_destructorINS6_ISD_EEEEEC2B8ue170006ILb1EvEEPSD_NS_16__dependent_typeINS_27__unique_ptr_deleter_sfinaeISG_EEXT_EE20__good_rval_ref_typeE, symObjAddr: 0x39D4, symBinAddr: 0x10000783C, symSize: 0x48 }
  - { offsetInCU: 0x10FFD, offset: 0x10FFD, size: 0x8, addend: 0x0, symName: __ZNSt3__117__compressed_pairIPNS_11__tree_nodeINS_12__value_typeINS_12basic_stringIcNS_11char_traitsIcEENS_9allocatorIcEEEEP6PersonEEPvEENS_22__tree_node_destructorINS6_ISD_EEEEEC1B8ue170006IRSE_SH_EEOT_OT0_, symObjAddr: 0x3A1C, symBinAddr: 0x100007884, symSize: 0x3C }
  - { offsetInCU: 0x11055, offset: 0x11055, size: 0x8, addend: 0x0, symName: __ZNSt3__117__compressed_pairIPNS_11__tree_nodeINS_12__value_typeINS_12basic_stringIcNS_11char_traitsIcEENS_9allocatorIcEEEEP6PersonEEPvEENS_22__tree_node_destructorINS6_ISD_EEEEEC2B8ue170006IRSE_SH_EEOT_OT0_, symObjAddr: 0x3A58, symBinAddr: 0x1000078C0, symSize: 0x48 }
  - { offsetInCU: 0x110AD, offset: 0x110AD, size: 0x8, addend: 0x0, symName: __ZNSt3__122__compressed_pair_elemIPNS_11__tree_nodeINS_12__value_typeINS_12basic_stringIcNS_11char_traitsIcEENS_9allocatorIcEEEEP6PersonEEPvEELi0ELb0EEC2B8ue170006IRSE_vEEOT_, symObjAddr: 0x3AA0, symBinAddr: 0x100007908, symSize: 0x24 }
  - { offsetInCU: 0x110EF, offset: 0x110EF, size: 0x8, addend: 0x0, symName: __ZNSt3__122__compressed_pair_elemINS_22__tree_node_destructorINS_9allocatorINS_11__tree_nodeINS_12__value_typeINS_12basic_stringIcNS_11char_traitsIcEENS2_IcEEEEP6PersonEEPvEEEEEELi1ELb0EEC2B8ue170006ISG_vEEOT_, symObjAddr: 0x3AC4, symBinAddr: 0x10000792C, symSize: 0x24 }
  - { offsetInCU: 0x11131, offset: 0x11131, size: 0x8, addend: 0x0, symName: __ZNSt3__19allocatorINS_11__tree_nodeINS_12__value_typeINS_12basic_stringIcNS_11char_traitsIcEENS0_IcEEEEP6PersonEEPvEEE9constructB8ue170006INS_4pairIKS7_S9_EEJRKNS_21piecewise_construct_tENS_5tupleIJRSG_EEENSL_IJEEEEEEvPT_DpOT0_, symObjAddr: 0x3AE8, symBinAddr: 0x100007950, symSize: 0x44 }
  - { offsetInCU: 0x111AD, offset: 0x111AD, size: 0x8, addend: 0x0, symName: __ZNSt3__14pairIKNS_12basic_stringIcNS_11char_traitsIcEENS_9allocatorIcEEEEP6PersonEC1B8ue170006IJRS7_EJEEENS_21piecewise_construct_tENS_5tupleIJDpT_EEENSE_IJDpT0_EEE, symObjAddr: 0x3B2C, symBinAddr: 0x100007994, symSize: 0x3C }
  - { offsetInCU: 0x11214, offset: 0x11214, size: 0x8, addend: 0x0, symName: __ZNSt3__14pairIKNS_12basic_stringIcNS_11char_traitsIcEENS_9allocatorIcEEEEP6PersonEC1B8ue170006IJRS7_EJEJLm0EEJEEENS_21piecewise_construct_tERNS_5tupleIJDpT_EEERNSE_IJDpT0_EEENS_15__tuple_indicesIJXspT1_EEEENSN_IJXspT2_EEEE, symObjAddr: 0x3B68, symBinAddr: 0x1000079D0, symSize: 0x3C }
  - { offsetInCU: 0x112A4, offset: 0x112A4, size: 0x8, addend: 0x0, symName: __ZNSt3__14pairIKNS_12basic_stringIcNS_11char_traitsIcEENS_9allocatorIcEEEEP6PersonEC2B8ue170006IJRS7_EJEJLm0EEJEEENS_21piecewise_construct_tERNS_5tupleIJDpT_EEERNSE_IJDpT0_EEENS_15__tuple_indicesIJXspT1_EEEENSN_IJXspT2_EEEE, symObjAddr: 0x3BA4, symBinAddr: 0x100007A0C, symSize: 0x48 }
  - { offsetInCU: 0x11334, offset: 0x11334, size: 0x8, addend: 0x0, symName: __ZNSt3__112__tuple_leafILm0ERKNS_12basic_stringIcNS_11char_traitsIcEENS_9allocatorIcEEEELb0EE3getB8ue170006Ev, symObjAddr: 0x3C10, symBinAddr: 0x100007A78, symSize: 0x18 }
  - { offsetInCU: 0x1135A, offset: 0x1135A, size: 0x8, addend: 0x0, symName: __ZNKSt3__117__compressed_pairIPNS_11__tree_nodeINS_12__value_typeINS_12basic_stringIcNS_11char_traitsIcEENS_9allocatorIcEEEEP6PersonEEPvEENS_22__tree_node_destructorINS6_ISD_EEEEE5firstB8ue170006Ev, symObjAddr: 0x3C28, symBinAddr: 0x100007A90, symSize: 0x24 }
  - { offsetInCU: 0x11380, offset: 0x11380, size: 0x8, addend: 0x0, symName: __ZNKSt3__122__compressed_pair_elemIPNS_11__tree_nodeINS_12__value_typeINS_12basic_stringIcNS_11char_traitsIcEENS_9allocatorIcEEEEP6PersonEEPvEELi0ELb0EE5__getB8ue170006Ev, symObjAddr: 0x3C4C, symBinAddr: 0x100007AB4, symSize: 0x14 }
  - { offsetInCU: 0x113A6, offset: 0x113A6, size: 0x8, addend: 0x0, symName: __ZNSt3__117__compressed_pairIPNS_11__tree_nodeINS_12__value_typeINS_12basic_stringIcNS_11char_traitsIcEENS_9allocatorIcEEEEP6PersonEEPvEENS_22__tree_node_destructorINS6_ISD_EEEEE6secondB8ue170006Ev, symObjAddr: 0x3C60, symBinAddr: 0x100007AC8, symSize: 0x28 }
  - { offsetInCU: 0x113CC, offset: 0x113CC, size: 0x8, addend: 0x0, symName: __ZNSt3__122__compressed_pair_elemINS_22__tree_node_destructorINS_9allocatorINS_11__tree_nodeINS_12__value_typeINS_12basic_stringIcNS_11char_traitsIcEENS2_IcEEEEP6PersonEEPvEEEEEELi1ELb0EE5__getB8ue170006Ev, symObjAddr: 0x3C88, symBinAddr: 0x100007AF0, symSize: 0x14 }
  - { offsetInCU: 0x113F2, offset: 0x113F2, size: 0x8, addend: 0x0, symName: __ZNSt3__16__treeINS_12__value_typeINS_12basic_stringIcNS_11char_traitsIcEENS_9allocatorIcEEEEP6PersonEENS_19__map_value_compareIS7_SA_NS_4lessIS7_EELb1EEENS5_ISA_EEE4sizeB8ue170006Ev, symObjAddr: 0x3F18, symBinAddr: 0x100007D80, symSize: 0x28 }
  - { offsetInCU: 0x11418, offset: 0x11418, size: 0x8, addend: 0x0, symName: __ZNSt3__116__tree_node_baseIPvE12__set_parentB8ue170006EPS2_, symObjAddr: 0x40E4, symBinAddr: 0x100007F4C, symSize: 0x20 }
  - { offsetInCU: 0x1144D, offset: 0x1144D, size: 0x8, addend: 0x0, symName: __ZNSt3__117__compressed_pairImNS_19__map_value_compareINS_12basic_stringIcNS_11char_traitsIcEENS_9allocatorIcEEEENS_12__value_typeIS7_P6PersonEENS_4lessIS7_EELb1EEEE5firstB8ue170006Ev, symObjAddr: 0x4104, symBinAddr: 0x100007F6C, symSize: 0x24 }
  - { offsetInCU: 0x11473, offset: 0x11473, size: 0x8, addend: 0x0, symName: __ZNSt3__122__compressed_pair_elemImLi0ELb0EE5__getB8ue170006Ev, symObjAddr: 0x4128, symBinAddr: 0x100007F90, symSize: 0x14 }
  - { offsetInCU: 0x11499, offset: 0x11499, size: 0x8, addend: 0x0, symName: __ZNSt3__117__compressed_pairIPNS_11__tree_nodeINS_12__value_typeINS_12basic_stringIcNS_11char_traitsIcEENS_9allocatorIcEEEEP6PersonEEPvEENS_22__tree_node_destructorINS6_ISD_EEEEE5firstB8ue170006Ev, symObjAddr: 0x413C, symBinAddr: 0x100007FA4, symSize: 0x24 }
  - { offsetInCU: 0x114BF, offset: 0x114BF, size: 0x8, addend: 0x0, symName: __ZNSt3__122__compressed_pair_elemIPNS_11__tree_nodeINS_12__value_typeINS_12basic_stringIcNS_11char_traitsIcEENS_9allocatorIcEEEEP6PersonEEPvEELi0ELb0EE5__getB8ue170006Ev, symObjAddr: 0x4160, symBinAddr: 0x100007FC8, symSize: 0x14 }
  - { offsetInCU: 0x114E5, offset: 0x114E5, size: 0x8, addend: 0x0, symName: __ZNSt3__110unique_ptrINS_11__tree_nodeINS_12__value_typeINS_12basic_stringIcNS_11char_traitsIcEENS_9allocatorIcEEEEP6PersonEEPvEENS_22__tree_node_destructorINS6_ISD_EEEEED2B8ue170006Ev, symObjAddr: 0x4174, symBinAddr: 0x100007FDC, symSize: 0x30 }
  - { offsetInCU: 0x1150F, offset: 0x1150F, size: 0x8, addend: 0x0, symName: __ZNSt3__110unique_ptrINS_11__tree_nodeINS_12__value_typeINS_12basic_stringIcNS_11char_traitsIcEENS_9allocatorIcEEEEP6PersonEEPvEENS_22__tree_node_destructorINS6_ISD_EEEEE5resetB8ue170006EPSD_, symObjAddr: 0x41A4, symBinAddr: 0x10000800C, symSize: 0x78 }
  - { offsetInCU: 0x11553, offset: 0x11553, size: 0x8, addend: 0x0, symName: __ZNSt3__122__tree_node_destructorINS_9allocatorINS_11__tree_nodeINS_12__value_typeINS_12basic_stringIcNS_11char_traitsIcEENS1_IcEEEEP6PersonEEPvEEEEEclB8ue170006EPSD_, symObjAddr: 0x421C, symBinAddr: 0x100008084, symSize: 0x88 }
  - { offsetInCU: 0x11588, offset: 0x11588, size: 0x8, addend: 0x0, symName: __ZNSt3__115__tree_iteratorINS_12__value_typeINS_12basic_stringIcNS_11char_traitsIcEENS_9allocatorIcEEEEP6PersonEEPNS_11__tree_nodeISA_PvEElEC2B8ue170006ESE_, symObjAddr: 0x42A4, symBinAddr: 0x10000810C, symSize: 0x20 }
  - { offsetInCU: 0x115C1, offset: 0x115C1, size: 0x8, addend: 0x0, symName: __ZNSt3__14pairINS_15__tree_iteratorINS_12__value_typeINS_12basic_stringIcNS_11char_traitsIcEENS_9allocatorIcEEEEP6PersonEEPNS_11__tree_nodeISB_PvEElEEbEC2B8ue170006ISG_RbLSD_0EEEOT_OT0_, symObjAddr: 0x42C4, symBinAddr: 0x10000812C, symSize: 0x38 }
  - { offsetInCU: 0x1161F, offset: 0x1161F, size: 0x8, addend: 0x0, symName: __ZNSt3__15tupleIJRKNS_12basic_stringIcNS_11char_traitsIcEENS_9allocatorIcEEEEEEC1B8ue170006INS_4_AndELi0EEES8_, symObjAddr: 0x42FC, symBinAddr: 0x100008164, symSize: 0x34 }
  - { offsetInCU: 0x11667, offset: 0x11667, size: 0x8, addend: 0x0, symName: __ZNSt3__15tupleIJRKNS_12basic_stringIcNS_11char_traitsIcEENS_9allocatorIcEEEEEEC2B8ue170006INS_4_AndELi0EEES8_, symObjAddr: 0x4330, symBinAddr: 0x100008198, symSize: 0x34 }
  - { offsetInCU: 0x116AF, offset: 0x116AF, size: 0x8, addend: 0x0, symName: __ZNSt3__112__tuple_implINS_15__tuple_indicesIJLm0EEEEJRKNS_12basic_stringIcNS_11char_traitsIcEENS_9allocatorIcEEEEEEC1B8ue170006IJLm0EEJSA_EJEJEJSA_EEENS1_IJXspT_EEEENS_13__tuple_typesIJDpT0_EEENS1_IJXspT1_EEEENSE_IJDpT2_EEEDpOT3_, symObjAddr: 0x4364, symBinAddr: 0x1000081CC, symSize: 0x34 }
  - { offsetInCU: 0x11744, offset: 0x11744, size: 0x8, addend: 0x0, symName: __ZNSt3__112__tuple_implINS_15__tuple_indicesIJLm0EEEEJRKNS_12basic_stringIcNS_11char_traitsIcEENS_9allocatorIcEEEEEEC2B8ue170006IJLm0EEJSA_EJEJEJSA_EEENS1_IJXspT_EEEENS_13__tuple_typesIJDpT0_EEENS1_IJXspT1_EEEENSE_IJDpT2_EEEDpOT3_, symObjAddr: 0x4398, symBinAddr: 0x100008200, symSize: 0x34 }
  - { offsetInCU: 0x117D9, offset: 0x117D9, size: 0x8, addend: 0x0, symName: __ZNSt3__112__tuple_leafILm0ERKNS_12basic_stringIcNS_11char_traitsIcEENS_9allocatorIcEEEELb0EEC2B8ue170006IS8_vEEOT_, symObjAddr: 0x43CC, symBinAddr: 0x100008234, symSize: 0x20 }
  - { offsetInCU: 0x1181C, offset: 0x1181C, size: 0x8, addend: 0x0, symName: __ZNSt3__13setIP6PersonNS_4lessIS2_EENS_9allocatorIS2_EEEC2B8ue170006Ev, symObjAddr: 0x43EC, symBinAddr: 0x100008254, symSize: 0x30 }
  - { offsetInCU: 0x11846, offset: 0x11846, size: 0x8, addend: 0x0, symName: __ZNSt3__16__treeIP6PersonNS_4lessIS2_EENS_9allocatorIS2_EEEC1ERKS4_, symObjAddr: 0x441C, symBinAddr: 0x100008284, symSize: 0x34 }
  - { offsetInCU: 0x11881, offset: 0x11881, size: 0x8, addend: 0x0, symName: __ZNSt3__16__treeIP6PersonNS_4lessIS2_EENS_9allocatorIS2_EEEC2ERKS4_, symObjAddr: 0x4450, symBinAddr: 0x1000082B8, symSize: 0x7C }
  - { offsetInCU: 0x118BC, offset: 0x118BC, size: 0x8, addend: 0x0, symName: __ZNSt3__117__compressed_pairINS_15__tree_end_nodeIPNS_16__tree_node_baseIPvEEEENS_9allocatorINS_11__tree_nodeIP6PersonS3_EEEEEC1B8ue170006ILb1EvEEv, symObjAddr: 0x44CC, symBinAddr: 0x100008334, symSize: 0x2C }
  - { offsetInCU: 0x118F1, offset: 0x118F1, size: 0x8, addend: 0x0, symName: __ZNSt3__117__compressed_pairImNS_4lessIP6PersonEEEC1B8ue170006IiRKS4_EEOT_OT0_, symObjAddr: 0x44F8, symBinAddr: 0x100008360, symSize: 0x3C }
  - { offsetInCU: 0x11949, offset: 0x11949, size: 0x8, addend: 0x0, symName: __ZNSt3__16__treeIP6PersonNS_4lessIS2_EENS_9allocatorIS2_EEE10__end_nodeB8ue170006Ev, symObjAddr: 0x4534, symBinAddr: 0x10000839C, symSize: 0x2C }
  - { offsetInCU: 0x1196F, offset: 0x1196F, size: 0x8, addend: 0x0, symName: __ZNSt3__16__treeIP6PersonNS_4lessIS2_EENS_9allocatorIS2_EEE12__begin_nodeB8ue170006Ev, symObjAddr: 0x4560, symBinAddr: 0x1000083C8, symSize: 0x14 }
  - { offsetInCU: 0x11995, offset: 0x11995, size: 0x8, addend: 0x0, symName: __ZNSt3__117__compressed_pairINS_15__tree_end_nodeIPNS_16__tree_node_baseIPvEEEENS_9allocatorINS_11__tree_nodeIP6PersonS3_EEEEEC2B8ue170006ILb1EvEEv, symObjAddr: 0x4574, symBinAddr: 0x1000083DC, symSize: 0x34 }
  - { offsetInCU: 0x119CA, offset: 0x119CA, size: 0x8, addend: 0x0, symName: __ZNSt3__122__compressed_pair_elemINS_9allocatorINS_11__tree_nodeIP6PersonPvEEEELi1ELb1EEC2B8ue170006ENS_16__value_init_tagE, symObjAddr: 0x45A8, symBinAddr: 0x100008410, symSize: 0x2C }
  - { offsetInCU: 0x119FF, offset: 0x119FF, size: 0x8, addend: 0x0, symName: __ZNSt3__19allocatorINS_11__tree_nodeIP6PersonPvEEEC2B8ue170006Ev, symObjAddr: 0x45D4, symBinAddr: 0x10000843C, symSize: 0x2C }
  - { offsetInCU: 0x11A29, offset: 0x11A29, size: 0x8, addend: 0x0, symName: __ZNSt3__116__non_trivial_ifILb1ENS_9allocatorINS_11__tree_nodeIP6PersonPvEEEEEC2B8ue170006Ev, symObjAddr: 0x4600, symBinAddr: 0x100008468, symSize: 0x14 }
  - { offsetInCU: 0x11A53, offset: 0x11A53, size: 0x8, addend: 0x0, symName: __ZNSt3__117__compressed_pairImNS_4lessIP6PersonEEEC2B8ue170006IiRKS4_EEOT_OT0_, symObjAddr: 0x4614, symBinAddr: 0x10000847C, symSize: 0x44 }
  - { offsetInCU: 0x11AAB, offset: 0x11AAB, size: 0x8, addend: 0x0, symName: __ZNSt3__122__compressed_pair_elemINS_4lessIP6PersonEELi1ELb1EEC2B8ue170006IRKS4_vEEOT_, symObjAddr: 0x4658, symBinAddr: 0x1000084C0, symSize: 0x18 }
  - { offsetInCU: 0x11AED, offset: 0x11AED, size: 0x8, addend: 0x0, symName: __ZNSt3__117__compressed_pairINS_15__tree_end_nodeIPNS_16__tree_node_baseIPvEEEENS_9allocatorINS_11__tree_nodeIP6PersonS3_EEEEE5firstB8ue170006Ev, symObjAddr: 0x4670, symBinAddr: 0x1000084D8, symSize: 0x24 }
  - { offsetInCU: 0x11B13, offset: 0x11B13, size: 0x8, addend: 0x0, symName: __ZNKSt3__16__treeINS_12__value_typeINS_12basic_stringIcNS_11char_traitsIcEENS_9allocatorIcEEEEP6PersonEENS_19__map_value_compareIS7_SA_NS_4lessIS7_EELb1EEENS5_ISA_EEE5beginB8ue170006Ev, symObjAddr: 0x4694, symBinAddr: 0x1000084FC, symSize: 0x34 }
  - { offsetInCU: 0x11B39, offset: 0x11B39, size: 0x8, addend: 0x0, symName: __ZNSt3__120__map_const_iteratorINS_21__tree_const_iteratorINS_12__value_typeINS_12basic_stringIcNS_11char_traitsIcEENS_9allocatorIcEEEEP6PersonEEPNS_11__tree_nodeISB_PvEElEEEC1B8ue170006ESG_, symObjAddr: 0x46C8, symBinAddr: 0x100008530, symSize: 0x34 }
  - { offsetInCU: 0x11B72, offset: 0x11B72, size: 0x8, addend: 0x0, symName: __ZNKSt3__16__treeINS_12__value_typeINS_12basic_stringIcNS_11char_traitsIcEENS_9allocatorIcEEEEP6PersonEENS_19__map_value_compareIS7_SA_NS_4lessIS7_EELb1EEENS5_ISA_EEE12__begin_nodeB8ue170006Ev, symObjAddr: 0x46FC, symBinAddr: 0x100008564, symSize: 0x14 }
  - { offsetInCU: 0x11B98, offset: 0x11B98, size: 0x8, addend: 0x0, symName: __ZNSt3__121__tree_const_iteratorINS_12__value_typeINS_12basic_stringIcNS_11char_traitsIcEENS_9allocatorIcEEEEP6PersonEEPNS_11__tree_nodeISA_PvEElEC1B8ue170006EPNS_15__tree_end_nodeIPNS_16__tree_node_baseISC_EEEE, symObjAddr: 0x4710, symBinAddr: 0x100008578, symSize: 0x34 }
  - { offsetInCU: 0x11BD1, offset: 0x11BD1, size: 0x8, addend: 0x0, symName: __ZNSt3__121__tree_const_iteratorINS_12__value_typeINS_12basic_stringIcNS_11char_traitsIcEENS_9allocatorIcEEEEP6PersonEEPNS_11__tree_nodeISA_PvEElEC2B8ue170006EPNS_15__tree_end_nodeIPNS_16__tree_node_baseISC_EEEE, symObjAddr: 0x4744, symBinAddr: 0x1000085AC, symSize: 0x20 }
  - { offsetInCU: 0x11C0A, offset: 0x11C0A, size: 0x8, addend: 0x0, symName: __ZNSt3__120__map_const_iteratorINS_21__tree_const_iteratorINS_12__value_typeINS_12basic_stringIcNS_11char_traitsIcEENS_9allocatorIcEEEEP6PersonEEPNS_11__tree_nodeISB_PvEElEEEC2B8ue170006ESG_, symObjAddr: 0x4764, symBinAddr: 0x1000085CC, symSize: 0x20 }
  - { offsetInCU: 0x11C43, offset: 0x11C43, size: 0x8, addend: 0x0, symName: __ZNKSt3__16__treeINS_12__value_typeINS_12basic_stringIcNS_11char_traitsIcEENS_9allocatorIcEEEEP6PersonEENS_19__map_value_compareIS7_SA_NS_4lessIS7_EELb1EEENS5_ISA_EEE3endB8ue170006Ev, symObjAddr: 0x4784, symBinAddr: 0x1000085EC, symSize: 0x34 }
  - { offsetInCU: 0x11C69, offset: 0x11C69, size: 0x8, addend: 0x0, symName: __ZNSt3__121__tree_const_iteratorINS_12__value_typeINS_12basic_stringIcNS_11char_traitsIcEENS_9allocatorIcEEEEP6PersonEEPNS_11__tree_nodeISA_PvEElEppB8ue170006Ev, symObjAddr: 0x481C, symBinAddr: 0x100008684, symSize: 0x38 }
  - { offsetInCU: 0x11C8F, offset: 0x11C8F, size: 0x8, addend: 0x0, symName: __ZNKSt3__121__tree_const_iteratorINS_12__value_typeINS_12basic_stringIcNS_11char_traitsIcEENS_9allocatorIcEEEEP6PersonEEPNS_11__tree_nodeISA_PvEElEptB8ue170006Ev, symObjAddr: 0x4854, symBinAddr: 0x1000086BC, symSize: 0x2C }
  - { offsetInCU: 0x11CB5, offset: 0x11CB5, size: 0x8, addend: 0x0, symName: __ZNSt3__114pointer_traitsIPKNS_12__value_typeINS_12basic_stringIcNS_11char_traitsIcEENS_9allocatorIcEEEEP6PersonEEE10pointer_toB8ue170006ERSB_, symObjAddr: 0x4880, symBinAddr: 0x1000086E8, symSize: 0x14 }
  - { offsetInCU: 0x11CD8, offset: 0x11CD8, size: 0x8, addend: 0x0, symName: __ZNKSt3__121__tree_const_iteratorINS_12__value_typeINS_12basic_stringIcNS_11char_traitsIcEENS_9allocatorIcEEEEP6PersonEEPNS_11__tree_nodeISA_PvEElE8__get_npB8ue170006Ev, symObjAddr: 0x4894, symBinAddr: 0x1000086FC, symSize: 0x18 }
  - { offsetInCU: 0x11CFE, offset: 0x11CFE, size: 0x8, addend: 0x0, symName: __ZNSt3__16__treeIP6PersonNS_4lessIS2_EENS_9allocatorIS2_EEE15__insert_uniqueB8ue170006ERKS2_, symObjAddr: 0x48AC, symBinAddr: 0x100008714, symSize: 0x50 }
  - { offsetInCU: 0x11D33, offset: 0x11D33, size: 0x8, addend: 0x0, symName: __ZNSt3__14pairINS_21__tree_const_iteratorIP6PersonPNS_11__tree_nodeIS3_PvEElEEbEC1B8ue170006INS_15__tree_iteratorIS3_S7_lEEbLS5_0EEEONS0_IT_T0_EE, symObjAddr: 0x48FC, symBinAddr: 0x100008764, symSize: 0x34 }
  - { offsetInCU: 0x11D84, offset: 0x11D84, size: 0x8, addend: 0x0, symName: __ZNSt3__16__treeIP6PersonNS_4lessIS2_EENS_9allocatorIS2_EEE25__emplace_unique_key_argsIS2_JRKS2_EEENS_4pairINS_15__tree_iteratorIS2_PNS_11__tree_nodeIS2_PvEElEEbEERKT_DpOT0_, symObjAddr: 0x4930, symBinAddr: 0x100008798, symSize: 0xF0 }
  - { offsetInCU: 0x11E30, offset: 0x11E30, size: 0x8, addend: 0x0, symName: __ZNSt3__122__tree_key_value_typesIP6PersonE9__get_keyB8ue170006ERKS2_, symObjAddr: 0x4A20, symBinAddr: 0x100008888, symSize: 0x14 }
  - { offsetInCU: 0x11E54, offset: 0x11E54, size: 0x8, addend: 0x0, symName: __ZNSt3__16__treeIP6PersonNS_4lessIS2_EENS_9allocatorIS2_EEE12__find_equalIS2_EERPNS_16__tree_node_baseIPvEERPNS_15__tree_end_nodeISC_EERKT_, symObjAddr: 0x4A34, symBinAddr: 0x10000889C, symSize: 0x184 }
  - { offsetInCU: 0x11EC1, offset: 0x11EC1, size: 0x8, addend: 0x0, symName: __ZNSt3__16__treeIP6PersonNS_4lessIS2_EENS_9allocatorIS2_EEE16__construct_nodeIJRKS2_EEENS_10unique_ptrINS_11__tree_nodeIS2_PvEENS_22__tree_node_destructorINS5_ISE_EEEEEEDpOT_, symObjAddr: 0x4BB8, symBinAddr: 0x100008A20, symSize: 0x108 }
  - { offsetInCU: 0x11F22, offset: 0x11F22, size: 0x8, addend: 0x0, symName: __ZNSt3__16__treeIP6PersonNS_4lessIS2_EENS_9allocatorIS2_EEE16__insert_node_atEPNS_15__tree_end_nodeIPNS_16__tree_node_baseIPvEEEERSC_SC_, symObjAddr: 0x4CC0, symBinAddr: 0x100008B28, symSize: 0xCC }
  - { offsetInCU: 0x11F77, offset: 0x11F77, size: 0x8, addend: 0x0, symName: __ZNKSt3__110unique_ptrINS_11__tree_nodeIP6PersonPvEENS_22__tree_node_destructorINS_9allocatorIS5_EEEEE3getB8ue170006Ev, symObjAddr: 0x4D8C, symBinAddr: 0x100008BF4, symSize: 0x28 }
  - { offsetInCU: 0x11F9D, offset: 0x11F9D, size: 0x8, addend: 0x0, symName: __ZNSt3__110unique_ptrINS_11__tree_nodeIP6PersonPvEENS_22__tree_node_destructorINS_9allocatorIS5_EEEEE7releaseB8ue170006Ev, symObjAddr: 0x4DB4, symBinAddr: 0x100008C1C, symSize: 0x44 }
  - { offsetInCU: 0x11FD2, offset: 0x11FD2, size: 0x8, addend: 0x0, symName: __ZNSt3__110unique_ptrINS_11__tree_nodeIP6PersonPvEENS_22__tree_node_destructorINS_9allocatorIS5_EEEEED1B8ue170006Ev, symObjAddr: 0x4DF8, symBinAddr: 0x100008C60, symSize: 0x2C }
  - { offsetInCU: 0x11FFC, offset: 0x11FFC, size: 0x8, addend: 0x0, symName: __ZNSt3__115__tree_iteratorIP6PersonPNS_11__tree_nodeIS2_PvEElEC1B8ue170006ES6_, symObjAddr: 0x4E24, symBinAddr: 0x100008C8C, symSize: 0x34 }
  - { offsetInCU: 0x1203A, offset: 0x1203A, size: 0x8, addend: 0x0, symName: __ZNSt3__14pairINS_15__tree_iteratorIP6PersonPNS_11__tree_nodeIS3_PvEElEEbEC1B8ue170006IS8_RbLS5_0EEEOT_OT0_, symObjAddr: 0x4E58, symBinAddr: 0x100008CC0, symSize: 0x3C }
  - { offsetInCU: 0x12098, offset: 0x12098, size: 0x8, addend: 0x0, symName: __ZNKSt3__16__treeIP6PersonNS_4lessIS2_EENS_9allocatorIS2_EEE10__root_ptrB8ue170006Ev, symObjAddr: 0x4E94, symBinAddr: 0x100008CFC, symSize: 0x24 }
  - { offsetInCU: 0x120BE, offset: 0x120BE, size: 0x8, addend: 0x0, symName: __ZNSt3__16__treeIP6PersonNS_4lessIS2_EENS_9allocatorIS2_EEE10value_compB8ue170006Ev, symObjAddr: 0x4EB8, symBinAddr: 0x100008D20, symSize: 0x28 }
  - { offsetInCU: 0x120E4, offset: 0x120E4, size: 0x8, addend: 0x0, symName: __ZNKSt3__14lessIP6PersonEclB8ue170006ERKS2_S5_, symObjAddr: 0x4EE0, symBinAddr: 0x100008D48, symSize: 0x34 }
  - { offsetInCU: 0x12128, offset: 0x12128, size: 0x8, addend: 0x0, symName: __ZNSt3__117__compressed_pairImNS_4lessIP6PersonEEE6secondB8ue170006Ev, symObjAddr: 0x4F14, symBinAddr: 0x100008D7C, symSize: 0x24 }
  - { offsetInCU: 0x1214E, offset: 0x1214E, size: 0x8, addend: 0x0, symName: __ZNSt3__122__compressed_pair_elemINS_4lessIP6PersonEELi1ELb1EE5__getB8ue170006Ev, symObjAddr: 0x4F38, symBinAddr: 0x100008DA0, symSize: 0x14 }
  - { offsetInCU: 0x12174, offset: 0x12174, size: 0x8, addend: 0x0, symName: __ZNSt3__116allocator_traitsINS_9allocatorINS_11__tree_nodeIP6PersonPvEEEEE8allocateB8ue170006ERS7_m, symObjAddr: 0x4F4C, symBinAddr: 0x100008DB4, symSize: 0x2C }
  - { offsetInCU: 0x121A7, offset: 0x121A7, size: 0x8, addend: 0x0, symName: __ZNSt3__122__tree_node_destructorINS_9allocatorINS_11__tree_nodeIP6PersonPvEEEEEC1B8ue170006ERS7_b, symObjAddr: 0x4F78, symBinAddr: 0x100008DE0, symSize: 0x48 }
  - { offsetInCU: 0x121F4, offset: 0x121F4, size: 0x8, addend: 0x0, symName: __ZNSt3__110unique_ptrINS_11__tree_nodeIP6PersonPvEENS_22__tree_node_destructorINS_9allocatorIS5_EEEEEC1B8ue170006ILb1EvEEPS5_NS_16__dependent_typeINS_27__unique_ptr_deleter_sfinaeIS9_EEXT_EE20__good_rval_ref_typeE, symObjAddr: 0x4FC0, symBinAddr: 0x100008E28, symSize: 0x3C }
  - { offsetInCU: 0x12245, offset: 0x12245, size: 0x8, addend: 0x0, symName: __ZNSt3__116allocator_traitsINS_9allocatorINS_11__tree_nodeIP6PersonPvEEEEE9constructB8ue170006IS4_JRKS4_EvEEvRS7_PT_DpOT0_, symObjAddr: 0x4FFC, symBinAddr: 0x100008E64, symSize: 0x34 }
  - { offsetInCU: 0x1229C, offset: 0x1229C, size: 0x8, addend: 0x0, symName: __ZNKSt3__110unique_ptrINS_11__tree_nodeIP6PersonPvEENS_22__tree_node_destructorINS_9allocatorIS5_EEEEEptB8ue170006Ev, symObjAddr: 0x5030, symBinAddr: 0x100008E98, symSize: 0x28 }
  - { offsetInCU: 0x122C2, offset: 0x122C2, size: 0x8, addend: 0x0, symName: __ZNSt3__110unique_ptrINS_11__tree_nodeIP6PersonPvEENS_22__tree_node_destructorINS_9allocatorIS5_EEEEE11get_deleterB8ue170006Ev, symObjAddr: 0x5058, symBinAddr: 0x100008EC0, symSize: 0x24 }
  - { offsetInCU: 0x122E8, offset: 0x122E8, size: 0x8, addend: 0x0, symName: __ZNSt3__19allocatorINS_11__tree_nodeIP6PersonPvEEE8allocateB8ue170006Em, symObjAddr: 0x507C, symBinAddr: 0x100008EE4, symSize: 0x5C }
  - { offsetInCU: 0x12326, offset: 0x12326, size: 0x8, addend: 0x0, symName: __ZNSt3__116allocator_traitsINS_9allocatorINS_11__tree_nodeIP6PersonPvEEEEE8max_sizeB8ue170006IS7_vEEmRKS7_, symObjAddr: 0x50D8, symBinAddr: 0x100008F40, symSize: 0x24 }
  - { offsetInCU: 0x12354, offset: 0x12354, size: 0x8, addend: 0x0, symName: __ZNKSt3__19allocatorINS_11__tree_nodeIP6PersonPvEEE8max_sizeB8ue170006Ev, symObjAddr: 0x50FC, symBinAddr: 0x100008F64, symSize: 0x18 }
  - { offsetInCU: 0x1237A, offset: 0x1237A, size: 0x8, addend: 0x0, symName: __ZNSt3__122__tree_node_destructorINS_9allocatorINS_11__tree_nodeIP6PersonPvEEEEEC2B8ue170006ERS7_b, symObjAddr: 0x5114, symBinAddr: 0x100008F7C, symSize: 0x38 }
  - { offsetInCU: 0x123C2, offset: 0x123C2, size: 0x8, addend: 0x0, symName: __ZNSt3__110unique_ptrINS_11__tree_nodeIP6PersonPvEENS_22__tree_node_destructorINS_9allocatorIS5_EEEEEC2B8ue170006ILb1EvEEPS5_NS_16__dependent_typeINS_27__unique_ptr_deleter_sfinaeIS9_EEXT_EE20__good_rval_ref_typeE, symObjAddr: 0x514C, symBinAddr: 0x100008FB4, symSize: 0x48 }
  - { offsetInCU: 0x12413, offset: 0x12413, size: 0x8, addend: 0x0, symName: __ZNSt3__117__compressed_pairIPNS_11__tree_nodeIP6PersonPvEENS_22__tree_node_destructorINS_9allocatorIS5_EEEEEC1B8ue170006IRS6_SA_EEOT_OT0_, symObjAddr: 0x5194, symBinAddr: 0x100008FFC, symSize: 0x3C }
  - { offsetInCU: 0x1246B, offset: 0x1246B, size: 0x8, addend: 0x0, symName: __ZNSt3__117__compressed_pairIPNS_11__tree_nodeIP6PersonPvEENS_22__tree_node_destructorINS_9allocatorIS5_EEEEEC2B8ue170006IRS6_SA_EEOT_OT0_, symObjAddr: 0x51D0, symBinAddr: 0x100009038, symSize: 0x48 }
  - { offsetInCU: 0x124C3, offset: 0x124C3, size: 0x8, addend: 0x0, symName: __ZNSt3__122__compressed_pair_elemIPNS_11__tree_nodeIP6PersonPvEELi0ELb0EEC2B8ue170006IRS6_vEEOT_, symObjAddr: 0x5218, symBinAddr: 0x100009080, symSize: 0x24 }
  - { offsetInCU: 0x12505, offset: 0x12505, size: 0x8, addend: 0x0, symName: __ZNSt3__122__compressed_pair_elemINS_22__tree_node_destructorINS_9allocatorINS_11__tree_nodeIP6PersonPvEEEEEELi1ELb0EEC2B8ue170006IS9_vEEOT_, symObjAddr: 0x523C, symBinAddr: 0x1000090A4, symSize: 0x24 }
  - { offsetInCU: 0x12547, offset: 0x12547, size: 0x8, addend: 0x0, symName: __ZNSt3__19allocatorINS_11__tree_nodeIP6PersonPvEEE9constructB8ue170006IS3_JRKS3_EEEvPT_DpOT0_, symObjAddr: 0x5260, symBinAddr: 0x1000090C8, symSize: 0x28 }
  - { offsetInCU: 0x1259D, offset: 0x1259D, size: 0x8, addend: 0x0, symName: __ZNKSt3__117__compressed_pairIPNS_11__tree_nodeIP6PersonPvEENS_22__tree_node_destructorINS_9allocatorIS5_EEEEE5firstB8ue170006Ev, symObjAddr: 0x5288, symBinAddr: 0x1000090F0, symSize: 0x24 }
  - { offsetInCU: 0x125C3, offset: 0x125C3, size: 0x8, addend: 0x0, symName: __ZNKSt3__122__compressed_pair_elemIPNS_11__tree_nodeIP6PersonPvEELi0ELb0EE5__getB8ue170006Ev, symObjAddr: 0x52AC, symBinAddr: 0x100009114, symSize: 0x14 }
  - { offsetInCU: 0x125E9, offset: 0x125E9, size: 0x8, addend: 0x0, symName: __ZNSt3__117__compressed_pairIPNS_11__tree_nodeIP6PersonPvEENS_22__tree_node_destructorINS_9allocatorIS5_EEEEE6secondB8ue170006Ev, symObjAddr: 0x52C0, symBinAddr: 0x100009128, symSize: 0x28 }
  - { offsetInCU: 0x1260F, offset: 0x1260F, size: 0x8, addend: 0x0, symName: __ZNSt3__122__compressed_pair_elemINS_22__tree_node_destructorINS_9allocatorINS_11__tree_nodeIP6PersonPvEEEEEELi1ELb0EE5__getB8ue170006Ev, symObjAddr: 0x52E8, symBinAddr: 0x100009150, symSize: 0x14 }
  - { offsetInCU: 0x12635, offset: 0x12635, size: 0x8, addend: 0x0, symName: __ZNSt3__16__treeIP6PersonNS_4lessIS2_EENS_9allocatorIS2_EEE4sizeB8ue170006Ev, symObjAddr: 0x52FC, symBinAddr: 0x100009164, symSize: 0x28 }
  - { offsetInCU: 0x1265B, offset: 0x1265B, size: 0x8, addend: 0x0, symName: __ZNSt3__117__compressed_pairImNS_4lessIP6PersonEEE5firstB8ue170006Ev, symObjAddr: 0x5324, symBinAddr: 0x10000918C, symSize: 0x24 }
  - { offsetInCU: 0x12681, offset: 0x12681, size: 0x8, addend: 0x0, symName: __ZNSt3__117__compressed_pairIPNS_11__tree_nodeIP6PersonPvEENS_22__tree_node_destructorINS_9allocatorIS5_EEEEE5firstB8ue170006Ev, symObjAddr: 0x5348, symBinAddr: 0x1000091B0, symSize: 0x24 }
  - { offsetInCU: 0x126A7, offset: 0x126A7, size: 0x8, addend: 0x0, symName: __ZNSt3__122__compressed_pair_elemIPNS_11__tree_nodeIP6PersonPvEELi0ELb0EE5__getB8ue170006Ev, symObjAddr: 0x536C, symBinAddr: 0x1000091D4, symSize: 0x14 }
  - { offsetInCU: 0x126CD, offset: 0x126CD, size: 0x8, addend: 0x0, symName: __ZNSt3__110unique_ptrINS_11__tree_nodeIP6PersonPvEENS_22__tree_node_destructorINS_9allocatorIS5_EEEEED2B8ue170006Ev, symObjAddr: 0x5380, symBinAddr: 0x1000091E8, symSize: 0x30 }
  - { offsetInCU: 0x126F7, offset: 0x126F7, size: 0x8, addend: 0x0, symName: __ZNSt3__110unique_ptrINS_11__tree_nodeIP6PersonPvEENS_22__tree_node_destructorINS_9allocatorIS5_EEEEE5resetB8ue170006EPS5_, symObjAddr: 0x53B0, symBinAddr: 0x100009218, symSize: 0x78 }
  - { offsetInCU: 0x1273B, offset: 0x1273B, size: 0x8, addend: 0x0, symName: __ZNSt3__122__tree_node_destructorINS_9allocatorINS_11__tree_nodeIP6PersonPvEEEEEclB8ue170006EPS6_, symObjAddr: 0x5428, symBinAddr: 0x100009290, symSize: 0x88 }
  - { offsetInCU: 0x12770, offset: 0x12770, size: 0x8, addend: 0x0, symName: __ZNSt3__115__tree_iteratorIP6PersonPNS_11__tree_nodeIS2_PvEElEC2B8ue170006ES6_, symObjAddr: 0x54B0, symBinAddr: 0x100009318, symSize: 0x20 }
  - { offsetInCU: 0x127A9, offset: 0x127A9, size: 0x8, addend: 0x0, symName: __ZNSt3__14pairINS_15__tree_iteratorIP6PersonPNS_11__tree_nodeIS3_PvEElEEbEC2B8ue170006IS8_RbLS5_0EEEOT_OT0_, symObjAddr: 0x54D0, symBinAddr: 0x100009338, symSize: 0x38 }
  - { offsetInCU: 0x12807, offset: 0x12807, size: 0x8, addend: 0x0, symName: __ZNSt3__14pairINS_21__tree_const_iteratorIP6PersonPNS_11__tree_nodeIS3_PvEElEEbEC2B8ue170006INS_15__tree_iteratorIS3_S7_lEEbLS5_0EEEONS0_IT_T0_EE, symObjAddr: 0x5508, symBinAddr: 0x100009370, symSize: 0x50 }
  - { offsetInCU: 0x12858, offset: 0x12858, size: 0x8, addend: 0x0, symName: __ZNSt3__121__tree_const_iteratorIP6PersonPNS_11__tree_nodeIS2_PvEElEC1B8ue170006ENS_15__tree_iteratorIS2_S6_lEE, symObjAddr: 0x5558, symBinAddr: 0x1000093C0, symSize: 0x34 }
  - { offsetInCU: 0x12891, offset: 0x12891, size: 0x8, addend: 0x0, symName: __ZNSt3__121__tree_const_iteratorIP6PersonPNS_11__tree_nodeIS2_PvEElEC2B8ue170006ENS_15__tree_iteratorIS2_S6_lEE, symObjAddr: 0x558C, symBinAddr: 0x1000093F4, symSize: 0x20 }
  - { offsetInCU: 0x128CA, offset: 0x128CA, size: 0x8, addend: 0x0, symName: __ZNKSt3__16__treeINS_12__value_typeINS_12basic_stringIcNS_11char_traitsIcEENS_9allocatorIcEEEEP6PersonEENS_19__map_value_compareIS7_SA_NS_4lessIS7_EELb1EEENS5_ISA_EEE4findIS7_EENS_21__tree_const_iteratorISA_PNS_11__tree_nodeISA_PvEElEERKT_, symObjAddr: 0x55AC, symBinAddr: 0x100009414, symSize: 0xF8 }
  - { offsetInCU: 0x12919, offset: 0x12919, size: 0x8, addend: 0x0, symName: __ZNKSt3__16__treeINS_12__value_typeINS_12basic_stringIcNS_11char_traitsIcEENS_9allocatorIcEEEEP6PersonEENS_19__map_value_compareIS7_SA_NS_4lessIS7_EELb1EEENS5_ISA_EEE13__lower_boundIS7_EENS_21__tree_const_iteratorISA_PNS_11__tree_nodeISA_PvEElEERKT_SM_PNS_15__tree_end_nodeIPNS_16__tree_node_baseISK_EEEE, symObjAddr: 0x56A4, symBinAddr: 0x10000950C, symSize: 0xA4 }
  - { offsetInCU: 0x12977, offset: 0x12977, size: 0x8, addend: 0x0, symName: __ZNKSt3__16__treeINS_12__value_typeINS_12basic_stringIcNS_11char_traitsIcEENS_9allocatorIcEEEEP6PersonEENS_19__map_value_compareIS7_SA_NS_4lessIS7_EELb1EEENS5_ISA_EEE10value_compB8ue170006Ev, symObjAddr: 0x5748, symBinAddr: 0x1000095B0, symSize: 0x28 }
  - { offsetInCU: 0x1299D, offset: 0x1299D, size: 0x8, addend: 0x0, symName: __ZNKSt3__121__tree_const_iteratorINS_12__value_typeINS_12basic_stringIcNS_11char_traitsIcEENS_9allocatorIcEEEEP6PersonEEPNS_11__tree_nodeISA_PvEElEdeB8ue170006Ev, symObjAddr: 0x5770, symBinAddr: 0x1000095D8, symSize: 0x28 }
  - { offsetInCU: 0x129C3, offset: 0x129C3, size: 0x8, addend: 0x0, symName: __ZNKSt3__117__compressed_pairImNS_19__map_value_compareINS_12basic_stringIcNS_11char_traitsIcEENS_9allocatorIcEEEENS_12__value_typeIS7_P6PersonEENS_4lessIS7_EELb1EEEE6secondB8ue170006Ev, symObjAddr: 0x5798, symBinAddr: 0x100009600, symSize: 0x24 }
  - { offsetInCU: 0x129E9, offset: 0x129E9, size: 0x8, addend: 0x0, symName: __ZNKSt3__122__compressed_pair_elemINS_19__map_value_compareINS_12basic_stringIcNS_11char_traitsIcEENS_9allocatorIcEEEENS_12__value_typeIS7_P6PersonEENS_4lessIS7_EELb1EEELi1ELb1EE5__getB8ue170006Ev, symObjAddr: 0x57BC, symBinAddr: 0x100009624, symSize: 0x14 }
  - { offsetInCU: 0x12A0F, offset: 0x12A0F, size: 0x8, addend: 0x0, symName: __ZNSt3__114pointer_traitsIPKNS_4pairIKNS_12basic_stringIcNS_11char_traitsIcEENS_9allocatorIcEEEEP6PersonEEE10pointer_toB8ue170006ERSC_, symObjAddr: 0x57D0, symBinAddr: 0x100009638, symSize: 0x14 }
  - { offsetInCU: 0x2C15, offset: 0x157C2, size: 0x8, addend: 0x0, symName: __ZNSt3__124__put_character_sequenceB8ue170006IcNS_11char_traitsIcEEEERNS_13basic_ostreamIT_T0_EES7_PKS4_m, symObjAddr: 0xF68, symBinAddr: 0x10000A2E8, symSize: 0x1EC }
  - { offsetInCU: 0x5F01, offset: 0x18AAE, size: 0x8, addend: 0x0, symName: __ZNSt3__111__introsortINS_17_ClassicAlgPolicyER7ComparePP6PersonLb0EEEvT1_S7_T0_NS_15iterator_traitsIS7_E15difference_typeEb, symObjAddr: 0x44B0, symBinAddr: 0x10000C56C, symSize: 0x440 }
  - { offsetInCU: 0x602C, offset: 0x18BD9, size: 0x8, addend: 0x0, symName: __ZNSt3__126__insertion_sort_unguardedB8ue170006INS_17_ClassicAlgPolicyER7ComparePP6PersonEEvT1_S7_T0_, symObjAddr: 0x4BC8, symBinAddr: 0x10000CC84, symSize: 0x12C }
  - { offsetInCU: 0x611C, offset: 0x18CC9, size: 0x8, addend: 0x0, symName: __ZNSt3__111__sift_downB8ue170006INS_17_ClassicAlgPolicyER7ComparePP6PersonEEvT1_OT0_NS_15iterator_traitsIS7_E15difference_typeES7_, symObjAddr: 0x610C, symBinAddr: 0x10000DEFC, symSize: 0x220 }
  - { offsetInCU: 0x61CD, offset: 0x18D7A, size: 0x8, addend: 0x0, symName: __ZNSt3__117__floyd_sift_downB8ue170006INS_17_ClassicAlgPolicyER7ComparePP6PersonEET1_S7_OT0_NS_15iterator_traitsIS7_E15difference_typeE, symObjAddr: 0x64C8, symBinAddr: 0x10000E2B8, symSize: 0x104 }
  - { offsetInCU: 0x6268, offset: 0x18E15, size: 0x8, addend: 0x0, symName: __ZNSt3__131__partition_with_equals_on_leftB8ue170006INS_17_ClassicAlgPolicyEPP6PersonR7CompareEET0_S7_S7_T1_, symObjAddr: 0x4F28, symBinAddr: 0x10000CFE4, symSize: 0x220 }
  - { offsetInCU: 0x6323, offset: 0x18ED0, size: 0x8, addend: 0x0, symName: __ZNSt3__118__bitset_partitionB8ue170006INS_17_ClassicAlgPolicyEPP6PersonR7CompareEENS_4pairIT0_bEES8_S8_T1_, symObjAddr: 0x5148, symBinAddr: 0x10000D204, symSize: 0x330 }
  - { offsetInCU: 0x641C, offset: 0x18FC9, size: 0x8, addend: 0x0, symName: __ZNSt3__124__swap_bitmap_pos_withinB8ue170006INS_17_ClassicAlgPolicyEPP6PersonEEvRT0_S6_RyS7_, symObjAddr: 0x6C44, symBinAddr: 0x10000EA34, symSize: 0x1E0 }
  - { offsetInCU: 0x64E9, offset: 0x19096, size: 0x8, addend: 0x0, symName: __ZNSt3__132__partition_with_equals_on_rightB8ue170006INS_17_ClassicAlgPolicyEPP6PersonR7CompareEENS_4pairIT0_bEES8_S8_T1_, symObjAddr: 0x5478, symBinAddr: 0x10000D534, symSize: 0x230 }
  - { offsetInCU: 0x65B3, offset: 0x19160, size: 0x8, addend: 0x0, symName: __ZNSt3__127__insertion_sort_incompleteB8ue170006INS_17_ClassicAlgPolicyER7ComparePP6PersonEEbT1_S7_T0_, symObjAddr: 0x56A8, symBinAddr: 0x10000D764, symSize: 0x318 }
  - { offsetInCU: 0x739F, offset: 0x19F4C, size: 0x8, addend: 0x0, symName: __ZNSt3__1lsB8ue170006INS_11char_traitsIcEEEERNS_13basic_ostreamIcT_EES6_PKc, symObjAddr: 0x61C, symBinAddr: 0x100009C68, symSize: 0x48 }
  - { offsetInCU: 0x819D, offset: 0x1AD4A, size: 0x8, addend: 0x0, symName: __ZNSt3__14sortB8ue170006INS_11__wrap_iterIPP6PersonEE7CompareEEvT_S7_T0_, symObjAddr: 0x9D0, symBinAddr: 0x100009F34, symSize: 0x40 }
  - { offsetInCU: 0x81F7, offset: 0x1ADA4, size: 0x8, addend: 0x0, symName: __ZNSt3__1neB8ue170006IPP6PersonEEbRKNS_11__wrap_iterIT_EES8_, symObjAddr: 0xA70, symBinAddr: 0x100009FD4, symSize: 0x34 }
  - { offsetInCU: 0x823A, offset: 0x1ADE7, size: 0x8, addend: 0x0, symName: __ZNSt3__1lsB8ue170006IcNS_11char_traitsIcEENS_9allocatorIcEEEERNS_13basic_ostreamIT_T0_EES9_RKNS_12basic_stringIS6_S7_T1_EE, symObjAddr: 0xABC, symBinAddr: 0x10000A020, symSize: 0x4C }
  - { offsetInCU: 0x8292, offset: 0x1AE3F, size: 0x8, addend: 0x0, symName: __ZNSt3__14endlB8ue170006IcNS_11char_traitsIcEEEERNS_13basic_ostreamIT_T0_EES7_, symObjAddr: 0xB34, symBinAddr: 0x10000A098, symSize: 0x58 }
  - { offsetInCU: 0x93A9, offset: 0x1BF56, size: 0x8, addend: 0x0, symName: __ZNSt3__1lsB8ue170006INS_11char_traitsIcEEEERNS_13basic_ostreamIcT_EES6_c, symObjAddr: 0xC58, symBinAddr: 0x10000A190, symSize: 0x34 }
  - { offsetInCU: 0x93EF, offset: 0x1BF9C, size: 0x8, addend: 0x0, symName: __ZNSt3__1eqB8ue170006IPP6PersonEEbRKNS_11__wrap_iterIT_EES8_, symObjAddr: 0xD18, symBinAddr: 0x10000A250, symSize: 0x48 }
  - { offsetInCU: 0x9432, offset: 0x1BFDF, size: 0x8, addend: 0x0, symName: __ZNSt3__116__pad_and_outputB8ue170006IcNS_11char_traitsIcEEEENS_19ostreambuf_iteratorIT_T0_EES6_PKS4_S8_S8_RNS_8ios_baseES4_, symObjAddr: 0x11A4, symBinAddr: 0x10000A4F0, symSize: 0x240 }
  - { offsetInCU: 0x9501, offset: 0x1C0AE, size: 0x8, addend: 0x0, symName: __ZNSt3__18distanceB8ue170006INS_21__tree_const_iteratorIP6PersonPNS_11__tree_nodeIS3_PvEElEEEENS_15iterator_traitsIT_E15difference_typeESA_SA_, symObjAddr: 0x2910, symBinAddr: 0x10000AC14, symSize: 0x3C }
  - { offsetInCU: 0x9544, offset: 0x1C0F1, size: 0x8, addend: 0x0, symName: __ZNSt3__110__distanceB8ue170006INS_21__tree_const_iteratorIP6PersonPNS_11__tree_nodeIS3_PvEElEEEENS_15iterator_traitsIT_E15difference_typeESA_SA_NS_18input_iterator_tagE, symObjAddr: 0x2ADC, symBinAddr: 0x10000ADE0, symSize: 0x5C }
  - { offsetInCU: 0x95A1, offset: 0x1C14E, size: 0x8, addend: 0x0, symName: __ZNSt3__1neB8ue170006ERKNS_21__tree_const_iteratorIP6PersonPNS_11__tree_nodeIS2_PvEElEES9_, symObjAddr: 0x2B38, symBinAddr: 0x10000AE3C, symSize: 0x34 }
  - { offsetInCU: 0x95DE, offset: 0x1C18B, size: 0x8, addend: 0x0, symName: __ZNSt3__1eqB8ue170006ERKNS_21__tree_const_iteratorIP6PersonPNS_11__tree_nodeIS2_PvEElEES9_, symObjAddr: 0x2BA4, symBinAddr: 0x10000AEA8, symSize: 0x30 }
  - { offsetInCU: 0x961B, offset: 0x1C1C8, size: 0x8, addend: 0x0, symName: __ZNSt3__122__make_exception_guardB8ue170006INS_6vectorIP6PersonNS_9allocatorIS3_EEE16__destroy_vectorEEENS_28__exception_guard_exceptionsIT_EES9_, symObjAddr: 0x2CE8, symBinAddr: 0x10000AED8, symSize: 0x40 }
  - { offsetInCU: 0x9650, offset: 0x1C1FD, size: 0x8, addend: 0x0, symName: __ZNSt3__119__allocate_at_leastB8ue170006INS_9allocatorIP6PersonEEEENS_19__allocation_resultINS_16allocator_traitsIT_E7pointerEEERS7_m, symObjAddr: 0x2FE0, symBinAddr: 0x10000B1D0, symSize: 0x40 }
  - { offsetInCU: 0x9894, offset: 0x1C441, size: 0x8, addend: 0x0, symName: __ZNSt3__120__throw_length_errorB8ue170006EPKc, symObjAddr: 0x3284, symBinAddr: 0x10000B3C0, symSize: 0x64 }
  - { offsetInCU: 0x98BF, offset: 0x1C46C, size: 0x8, addend: 0x0, symName: __ZNSt3__112__to_addressB8ue170006IP6PersonEEPT_S4_, symObjAddr: 0x3538, symBinAddr: 0x10000B5F4, symSize: 0x14 }
  - { offsetInCU: 0x98F4, offset: 0x1C4A1, size: 0x8, addend: 0x0, symName: __ZNSt3__130__uninitialized_allocator_copyB8ue170006INS_9allocatorIP6PersonEENS_21__tree_const_iteratorIS3_PNS_11__tree_nodeIS3_PvEElEESA_PS3_EET2_RT_T0_T1_SC_, symObjAddr: 0x35E8, symBinAddr: 0x10000B6A4, symSize: 0x90 }
  - { offsetInCU: 0x9991, offset: 0x1C53E, size: 0x8, addend: 0x0, symName: __ZNSt3__114__unwrap_rangeB8ue170006INS_21__tree_const_iteratorIP6PersonPNS_11__tree_nodeIS3_PvEElEES8_EENS_4pairIT0_SA_EET_SC_, symObjAddr: 0x36E8, symBinAddr: 0x10000B7A4, symSize: 0x70 }
  - { offsetInCU: 0x99DD, offset: 0x1C58A, size: 0x8, addend: 0x0, symName: __ZNSt3__135__uninitialized_allocator_copy_implB8ue170006INS_9allocatorIP6PersonEENS_21__tree_const_iteratorIS3_PNS_11__tree_nodeIS3_PvEElEESA_PS3_EET2_RT_T0_T1_SC_, symObjAddr: 0x3758, symBinAddr: 0x10000B814, symSize: 0x10C }
  - { offsetInCU: 0x9A7B, offset: 0x1C628, size: 0x8, addend: 0x0, symName: __ZNSt3__113__unwrap_iterB8ue170006IPP6PersonNS_18__unwrap_iter_implIS3_Lb1EEELi0EEEDTclsrT0_8__unwrapclsr3stdE7declvalIT_EEEES7_, symObjAddr: 0x3864, symBinAddr: 0x10000B920, symSize: 0x24 }
  - { offsetInCU: 0x9ABF, offset: 0x1C66C, size: 0x8, addend: 0x0, symName: __ZNSt3__113__rewrap_iterB8ue170006IPP6PersonS3_NS_18__unwrap_iter_implIS3_Lb1EEEEET_S6_T0_, symObjAddr: 0x3888, symBinAddr: 0x10000B944, symSize: 0x3C }
  - { offsetInCU: 0x9B14, offset: 0x1C6C1, size: 0x8, addend: 0x0, symName: __ZNSt3__19make_pairB8ue170006INS_21__tree_const_iteratorIP6PersonPNS_11__tree_nodeIS3_PvEElEES8_EENS_4pairINS_18__unwrap_ref_decayIT_E4typeENSA_IT0_E4typeEEEOSB_OSE_, symObjAddr: 0x38C4, symBinAddr: 0x10000B980, symSize: 0x38 }
  - { offsetInCU: 0x9B63, offset: 0x1C710, size: 0x8, addend: 0x0, symName: __ZNSt3__113__unwrap_iterB8ue170006INS_21__tree_const_iteratorIP6PersonPNS_11__tree_nodeIS3_PvEElEENS_18__unwrap_iter_implIS8_Lb0EEELi0EEEDTclsrT0_8__unwrapclsr3stdE7declvalIT_EEEESC_, symObjAddr: 0x38FC, symBinAddr: 0x10000B9B8, symSize: 0x34 }
  - { offsetInCU: 0x9BEF, offset: 0x1C79C, size: 0x8, addend: 0x0, symName: __ZNSt3__122__make_exception_guardB8ue170006INS_29_AllocatorDestroyRangeReverseINS_9allocatorIP6PersonEEPS4_EEEENS_28__exception_guard_exceptionsIT_EES9_, symObjAddr: 0x39BC, symBinAddr: 0x10000BA78, symSize: 0x4C }
  - { offsetInCU: 0x9C25, offset: 0x1C7D2, size: 0x8, addend: 0x0, symName: __ZNSt3__119__allocator_destroyB8ue170006INS_9allocatorIP6PersonEENS_16reverse_iteratorIPS3_EES7_EEvRT_T0_T1_, symObjAddr: 0x3C84, symBinAddr: 0x10000BD40, symSize: 0x70 }
  - { offsetInCU: 0x9C88, offset: 0x1C835, size: 0x8, addend: 0x0, symName: __ZNSt3__1neB8ue170006IPP6PersonS3_EEbRKNS_16reverse_iteratorIT_EERKNS4_IT0_EE, symObjAddr: 0x3D28, symBinAddr: 0x10000BDE4, symSize: 0x48 }
  - { offsetInCU: 0x9CD4, offset: 0x1C881, size: 0x8, addend: 0x0, symName: __ZNSt3__112__to_addressB8ue170006INS_16reverse_iteratorIPP6PersonEEvEEu7__decayIDTclsr19__to_address_helperIT_EE6__callclsr3stdE7declvalIRKS6_EEEEES8_, symObjAddr: 0x3D9C, symBinAddr: 0x10000BE58, symSize: 0x24 }
  - { offsetInCU: 0x9D87, offset: 0x1C934, size: 0x8, addend: 0x0, symName: __ZNSt3__111__sort_implB8ue170006INS_17_ClassicAlgPolicyENS_11__wrap_iterIPP6PersonEE7CompareEEvT0_S8_RT1_, symObjAddr: 0x42F8, symBinAddr: 0x10000C3B4, symSize: 0xA8 }
  - { offsetInCU: 0x9DEA, offset: 0x1C997, size: 0x8, addend: 0x0, symName: __ZNSt3__123__debug_randomize_rangeB8ue170006INS_17_ClassicAlgPolicyENS_11__wrap_iterIPP6PersonEES6_EEvT0_T1_, symObjAddr: 0x43A0, symBinAddr: 0x10000C45C, symSize: 0x14 }
  - { offsetInCU: 0x9E3C, offset: 0x1C9E9, size: 0x8, addend: 0x0, symName: __ZNSt3__115__sort_dispatchB8ue170006INS_17_ClassicAlgPolicyEPP6Person7CompareEEvT0_S6_RT1_, symObjAddr: 0x43B4, symBinAddr: 0x10000C470, symSize: 0x64 }
  - { offsetInCU: 0x9EBA, offset: 0x1CA67, size: 0x8, addend: 0x0, symName: __ZNSt3__113__unwrap_iterB8ue170006INS_11__wrap_iterIPP6PersonEENS_18__unwrap_iter_implIS5_Lb1EEELi0EEEDTclsrT0_8__unwrapclsr3stdE7declvalIT_EEEES9_, symObjAddr: 0x4418, symBinAddr: 0x10000C4D4, symSize: 0x2C }
  - { offsetInCU: 0x9EFE, offset: 0x1CAAB, size: 0x8, addend: 0x0, symName: __ZNSt3__135__check_strict_weak_ordering_sortedB8ue170006IPP6Person7CompareEEvT_S5_RT0_, symObjAddr: 0x4444, symBinAddr: 0x10000C500, symSize: 0x18 }
  - { offsetInCU: 0x9F55, offset: 0x1CB02, size: 0x8, addend: 0x0, symName: __ZNSt3__17__log2iB8ue170006IlEET_S1_, symObjAddr: 0x445C, symBinAddr: 0x10000C518, symSize: 0x54 }
  - { offsetInCU: 0x9F8C, offset: 0x1CB39, size: 0x8, addend: 0x0, symName: __ZNSt3__112__libcpp_clzB8ue170006Em, symObjAddr: 0x4908, symBinAddr: 0x10000C9C4, symSize: 0x1C }
  - { offsetInCU: 0xA0A2, offset: 0x1CC4F, size: 0x8, addend: 0x0, symName: __ZNSt3__124__sort3_maybe_branchlessB8ue170006INS_17_ClassicAlgPolicyER7ComparePP6PersonEENS_9enable_ifIXntsr21__use_branchless_sortIT0_T1_EE5valueEvE4typeES9_S9_S9_S8_, symObjAddr: 0x49A0, symBinAddr: 0x10000CA5C, symSize: 0x3C }
  - { offsetInCU: 0xA113, offset: 0x1CCC0, size: 0x8, addend: 0x0, symName: __ZNSt3__124__sort4_maybe_branchlessB8ue170006INS_17_ClassicAlgPolicyER7ComparePP6PersonEENS_9enable_ifIXntsr21__use_branchless_sortIT0_T1_EE5valueEvE4typeES9_S9_S9_S9_S8_, symObjAddr: 0x49DC, symBinAddr: 0x10000CA98, symSize: 0x44 }
  - { offsetInCU: 0xA192, offset: 0x1CD3F, size: 0x8, addend: 0x0, symName: __ZNSt3__124__sort5_maybe_branchlessB8ue170006INS_17_ClassicAlgPolicyER7ComparePP6PersonEENS_9enable_ifIXntsr21__use_branchless_sortIT0_T1_EE5valueEvE4typeES9_S9_S9_S9_S9_S8_, symObjAddr: 0x4A20, symBinAddr: 0x10000CADC, symSize: 0x4C }
  - { offsetInCU: 0xA21F, offset: 0x1CDCC, size: 0x8, addend: 0x0, symName: __ZNSt3__116__insertion_sortB8ue170006INS_17_ClassicAlgPolicyER7ComparePP6PersonEEvT1_S7_T0_, symObjAddr: 0x4A6C, symBinAddr: 0x10000CB28, symSize: 0x15C }
  - { offsetInCU: 0xA2E3, offset: 0x1CE90, size: 0x8, addend: 0x0, symName: __ZNSt3__114__partial_sortB8ue170006INS_17_ClassicAlgPolicyER7ComparePP6PersonS6_EET1_S7_S7_T2_RT0_, symObjAddr: 0x4CF4, symBinAddr: 0x10000CDB0, symSize: 0x94 }
  - { offsetInCU: 0xA36C, offset: 0x1CF19, size: 0x8, addend: 0x0, symName: __ZNSt3__17__sort3B8ue170006INS_17_ClassicAlgPolicyER7ComparePP6PersonEEjT1_S7_S7_T0_, symObjAddr: 0x4D88, symBinAddr: 0x10000CE44, symSize: 0x16C }
  - { offsetInCU: 0xA3EC, offset: 0x1CF99, size: 0x8, addend: 0x0, symName: __ZNSt3__19iter_swapB8ue170006IPP6PersonS3_EEvT_T0_, symObjAddr: 0x5CA4, symBinAddr: 0x10000DA94, symSize: 0x2C }
  - { offsetInCU: 0xA435, offset: 0x1CFE2, size: 0x8, addend: 0x0, symName: __ZNSt3__14swapB8ue170006IP6PersonEENS_9enable_ifIXaasr21is_move_constructibleIT_EE5valuesr18is_move_assignableIS4_EE5valueEvE4typeERS4_S7_, symObjAddr: 0x5CD0, symBinAddr: 0x10000DAC0, symSize: 0x3C }
  - { offsetInCU: 0xA487, offset: 0x1D034, size: 0x8, addend: 0x0, symName: __ZNSt3__17__sort4B8ue170006INS_17_ClassicAlgPolicyER7ComparePP6PersonEEvT1_S7_S7_S7_T0_, symObjAddr: 0x5D0C, symBinAddr: 0x10000DAFC, symSize: 0xD0 }
  - { offsetInCU: 0xA503, offset: 0x1D0B0, size: 0x8, addend: 0x0, symName: __ZNSt3__17__sort5B8ue170006INS_17_ClassicAlgPolicyER7ComparePP6PersonEEvT1_S7_S7_S7_S7_T0_, symObjAddr: 0x5DDC, symBinAddr: 0x10000DBCC, symSize: 0x108 }
  - { offsetInCU: 0xA5B1, offset: 0x1D15E, size: 0x8, addend: 0x0, symName: __ZNSt3__123__debug_randomize_rangeB8ue170006INS_17_ClassicAlgPolicyEPP6PersonS4_EEvT0_T1_, symObjAddr: 0x5F28, symBinAddr: 0x10000DD18, symSize: 0x14 }
  - { offsetInCU: 0xA603, offset: 0x1D1B0, size: 0x8, addend: 0x0, symName: __ZNSt3__119__partial_sort_implB8ue170006INS_17_ClassicAlgPolicyER7ComparePP6PersonS6_EET1_S7_S7_T2_OT0_, symObjAddr: 0x5F3C, symBinAddr: 0x10000DD2C, symSize: 0x118 }
  - { offsetInCU: 0xA69B, offset: 0x1D248, size: 0x8, addend: 0x0, symName: __ZNSt3__111__make_heapB8ue170006INS_17_ClassicAlgPolicyER7ComparePP6PersonEEvT1_S7_OT0_, symObjAddr: 0x6054, symBinAddr: 0x10000DE44, symSize: 0xB8 }
  - { offsetInCU: 0xA741, offset: 0x1D2EE, size: 0x8, addend: 0x0, symName: __ZNSt3__111__sort_heapB8ue170006INS_17_ClassicAlgPolicyER7ComparePP6PersonEEvT1_S7_OT0_, symObjAddr: 0x632C, symBinAddr: 0x10000E11C, symSize: 0xA8 }
  - { offsetInCU: 0xA7E7, offset: 0x1D394, size: 0x8, addend: 0x0, symName: __ZNSt3__110__pop_heapB8ue170006INS_17_ClassicAlgPolicyE7ComparePP6PersonEEvT1_S6_RT0_NS_15iterator_traitsIS6_E15difference_typeE, symObjAddr: 0x63D4, symBinAddr: 0x10000E1C4, symSize: 0xF4 }
  - { offsetInCU: 0xA89B, offset: 0x1D448, size: 0x8, addend: 0x0, symName: __ZNSt3__19__sift_upB8ue170006INS_17_ClassicAlgPolicyER7ComparePP6PersonEEvT1_S7_OT0_NS_15iterator_traitsIS7_E15difference_typeE, symObjAddr: 0x65CC, symBinAddr: 0x10000E3BC, symSize: 0x128 }
  - { offsetInCU: 0xA94E, offset: 0x1D4FB, size: 0x8, addend: 0x0, symName: __ZNSt3__122__populate_left_bitsetB8ue170006IR7ComparePP6PersonS4_EEvT0_T_RT1_Ry, symObjAddr: 0x66F4, symBinAddr: 0x10000E4E4, symSize: 0xB0 }
  - { offsetInCU: 0xAA09, offset: 0x1D5B6, size: 0x8, addend: 0x0, symName: __ZNSt3__123__populate_right_bitsetB8ue170006IR7ComparePP6PersonS4_EEvT0_T_RT1_Ry, symObjAddr: 0x67A4, symBinAddr: 0x10000E594, symSize: 0xA8 }
  - { offsetInCU: 0xAAC4, offset: 0x1D671, size: 0x8, addend: 0x0, symName: __ZNSt3__117__swap_bitmap_posB8ue170006INS_17_ClassicAlgPolicyEPP6PersonEEvT0_S5_RyS6_, symObjAddr: 0x684C, symBinAddr: 0x10000E63C, symSize: 0x100 }
  - { offsetInCU: 0xAB65, offset: 0x1D712, size: 0x8, addend: 0x0, symName: __ZNSt3__133__bitset_partition_partial_blocksB8ue170006INS_17_ClassicAlgPolicyER7ComparePP6PersonS5_EEvRT1_S8_T0_RT2_RySC_, symObjAddr: 0x694C, symBinAddr: 0x10000E73C, symSize: 0x2F8 }
  - { offsetInCU: 0xACE6, offset: 0x1D893, size: 0x8, addend: 0x0, symName: __ZNSt3__19make_pairB8ue170006IRPP6PersonRbEENS_4pairINS_18__unwrap_ref_decayIT_E4typeENS7_IT0_E4typeEEEOS8_OSB_, symObjAddr: 0x6E24, symBinAddr: 0x10000EC14, symSize: 0x38 }
  - { offsetInCU: 0xAD35, offset: 0x1D8E2, size: 0x8, addend: 0x0, symName: __ZNSt3__112__libcpp_ctzB8ue170006Ey, symObjAddr: 0x6E5C, symBinAddr: 0x10000EC4C, symSize: 0x20 }
  - { offsetInCU: 0xAD61, offset: 0x1D90E, size: 0x8, addend: 0x0, symName: __ZNSt3__113__libcpp_blsrB8ue170006Ey, symObjAddr: 0x6E7C, symBinAddr: 0x10000EC6C, symSize: 0x2C }
  - { offsetInCU: 0xAD8D, offset: 0x1D93A, size: 0x8, addend: 0x0, symName: __ZNSt3__112__libcpp_clzB8ue170006Ey, symObjAddr: 0x6EDC, symBinAddr: 0x10000ECCC, symSize: 0x1C }
  - { offsetInCU: 0xAEE0, offset: 0x1DA8D, size: 0x8, addend: 0x0, symName: __ZNSt3__112__to_addressB8ue170006INS_11__wrap_iterIPP6PersonEEvEEu7__decayIDTclsr19__to_address_helperIT_EE6__callclsr3stdE7declvalIRKS6_EEEEES8_, symObjAddr: 0x6F94, symBinAddr: 0x10000ED84, symSize: 0x24 }
  - { offsetInCU: 0xD98A, offset: 0x20537, size: 0x8, addend: 0x0, symName: _main, symObjAddr: 0x0, symBinAddr: 0x10000964C, symSize: 0x61C }
  - { offsetInCU: 0xDBC9, offset: 0x20776, size: 0x8, addend: 0x0, symName: __ZNSt3__114basic_ifstreamIcNS_11char_traitsIcEEEC1EPKcj, symObjAddr: 0x664, symBinAddr: 0x100009CB0, symSize: 0x16C }
  - { offsetInCU: 0xDC18, offset: 0x207C5, size: 0x8, addend: 0x0, symName: __ZNSt3__114basic_ifstreamIcNS_11char_traitsIcEEED1Ev, symObjAddr: 0x7F8, symBinAddr: 0x100009E1C, symSize: 0x40 }
  - { offsetInCU: 0xDC45, offset: 0x207F2, size: 0x8, addend: 0x0, symName: __ZNKSt3__13setIP6PersonNS_4lessIS2_EENS_9allocatorIS2_EEE5countB8ue170006ERKS2_, symObjAddr: 0x8F8, symBinAddr: 0x100009E5C, symSize: 0x2C }
  - { offsetInCU: 0xDC7A, offset: 0x20827, size: 0x8, addend: 0x0, symName: __ZNSt3__13setIP6PersonNS_4lessIS2_EENS_9allocatorIS2_EEE5beginB8ue170006Ev, symObjAddr: 0x924, symBinAddr: 0x100009E88, symSize: 0x38 }
  - { offsetInCU: 0xDCA0, offset: 0x2084D, size: 0x8, addend: 0x0, symName: __ZNSt3__13setIP6PersonNS_4lessIS2_EENS_9allocatorIS2_EEE3endB8ue170006Ev, symObjAddr: 0x95C, symBinAddr: 0x100009EC0, symSize: 0x38 }
  - { offsetInCU: 0xDCC6, offset: 0x20873, size: 0x8, addend: 0x0, symName: __ZNSt3__16vectorIP6PersonNS_9allocatorIS2_EEEC1INS_21__tree_const_iteratorIS2_PNS_11__tree_nodeIS2_PvEElEELi0EEET_SD_, symObjAddr: 0x994, symBinAddr: 0x100009EF8, symSize: 0x3C }
  - { offsetInCU: 0xDD1F, offset: 0x208CC, size: 0x8, addend: 0x0, symName: __ZNSt3__16vectorIP6PersonNS_9allocatorIS2_EEE5beginB8ue170006Ev, symObjAddr: 0xA10, symBinAddr: 0x100009F74, symSize: 0x30 }
  - { offsetInCU: 0xDD47, offset: 0x208F4, size: 0x8, addend: 0x0, symName: __ZNSt3__16vectorIP6PersonNS_9allocatorIS2_EEE3endB8ue170006Ev, symObjAddr: 0xA40, symBinAddr: 0x100009FA4, symSize: 0x30 }
  - { offsetInCU: 0xDD6F, offset: 0x2091C, size: 0x8, addend: 0x0, symName: __ZNKSt3__111__wrap_iterIPP6PersonEdeB8ue170006Ev, symObjAddr: 0xAA4, symBinAddr: 0x10000A008, symSize: 0x18 }
  - { offsetInCU: 0xDD95, offset: 0x20942, size: 0x8, addend: 0x0, symName: __ZNSt3__113basic_ostreamIcNS_11char_traitsIcEEElsB8ue170006EPFRS3_S4_E, symObjAddr: 0xB08, symBinAddr: 0x10000A06C, symSize: 0x2C }
  - { offsetInCU: 0xDDC9, offset: 0x20976, size: 0x8, addend: 0x0, symName: __ZNSt3__111__wrap_iterIPP6PersonEppB8ue170006Ev, symObjAddr: 0xB8C, symBinAddr: 0x10000A0F0, symSize: 0x20 }
  - { offsetInCU: 0xDDEF, offset: 0x2099C, size: 0x8, addend: 0x0, symName: __ZNKSt3__16vectorIP6PersonNS_9allocatorIS2_EEE5emptyB8ue170006Ev, symObjAddr: 0xBAC, symBinAddr: 0x10000A110, symSize: 0x28 }
  - { offsetInCU: 0xDE15, offset: 0x209C2, size: 0x8, addend: 0x0, symName: __ZNSt3__16vectorIP6PersonNS_9allocatorIS2_EEED1B8ue170006Ev, symObjAddr: 0xBD4, symBinAddr: 0x10000A138, symSize: 0x2C }
  - { offsetInCU: 0xE10E, offset: 0x20CBB, size: 0x8, addend: 0x0, symName: __ZN5QueryD1Ev, symObjAddr: 0xC2C, symBinAddr: 0x10000A164, symSize: 0x2C }
  - { offsetInCU: 0xE13A, offset: 0x20CE7, size: 0x8, addend: 0x0, symName: __ZNSt3__114basic_ifstreamIcNS_11char_traitsIcEEED2Ev, symObjAddr: 0xC8C, symBinAddr: 0x10000A1C4, symSize: 0x64 }
  - { offsetInCU: 0xE174, offset: 0x20D21, size: 0x8, addend: 0x0, symName: __ZTv0_n24_NSt3__114basic_ifstreamIcNS_11char_traitsIcEEED1Ev, symObjAddr: 0xCF0, symBinAddr: 0x10000A228, symSize: 0x28 }
  - { offsetInCU: 0xE18B, offset: 0x20D38, size: 0x8, addend: 0x0, symName: __ZNKSt3__111__wrap_iterIPP6PersonE4baseB8ue170006Ev, symObjAddr: 0xD60, symBinAddr: 0x10000A298, symSize: 0x18 }
  - { offsetInCU: 0xE1B1, offset: 0x20D5E, size: 0x8, addend: 0x0, symName: __ZN5QueryD2Ev, symObjAddr: 0xD78, symBinAddr: 0x10000A2B0, symSize: 0x38 }
  - { offsetInCU: 0xE200, offset: 0x20DAD, size: 0x8, addend: 0x0, symName: __ZNKSt3__113basic_ostreamIcNS_11char_traitsIcEEE6sentrycvbB8ue170006Ev, symObjAddr: 0x1188, symBinAddr: 0x10000A4D4, symSize: 0x1C }
  - { offsetInCU: 0xE226, offset: 0x20DD3, size: 0x8, addend: 0x0, symName: __ZNSt3__119ostreambuf_iteratorIcNS_11char_traitsIcEEEC1B8ue170006ERNS_13basic_ostreamIcS2_EE, symObjAddr: 0x13E4, symBinAddr: 0x10000A730, symSize: 0x34 }
  - { offsetInCU: 0xE25E, offset: 0x20E0B, size: 0x8, addend: 0x0, symName: __ZNKSt3__18ios_base5flagsB8ue170006Ev, symObjAddr: 0x1418, symBinAddr: 0x10000A764, symSize: 0x18 }
  - { offsetInCU: 0xE286, offset: 0x20E33, size: 0x8, addend: 0x0, symName: __ZNKSt3__19basic_iosIcNS_11char_traitsIcEEE4fillB8ue170006Ev, symObjAddr: 0x1430, symBinAddr: 0x10000A77C, symSize: 0x64 }
  - { offsetInCU: 0xE2AE, offset: 0x20E5B, size: 0x8, addend: 0x0, symName: __ZNKSt3__119ostreambuf_iteratorIcNS_11char_traitsIcEEE6failedB8ue170006Ev, symObjAddr: 0x1494, symBinAddr: 0x10000A7E0, symSize: 0x24 }
  - { offsetInCU: 0xE2D4, offset: 0x20E81, size: 0x8, addend: 0x0, symName: __ZNKSt3__18ios_base5widthB8ue170006Ev, symObjAddr: 0x14E4, symBinAddr: 0x10000A804, symSize: 0x18 }
  - { offsetInCU: 0xE2FC, offset: 0x20EA9, size: 0x8, addend: 0x0, symName: __ZNSt3__115basic_streambufIcNS_11char_traitsIcEEE5sputnB8ue170006EPKcl, symObjAddr: 0x14FC, symBinAddr: 0x10000A81C, symSize: 0x3C }
  - { offsetInCU: 0xE33E, offset: 0x20EEB, size: 0x8, addend: 0x0, symName: __ZNSt3__112basic_stringIcNS_11char_traitsIcEENS_9allocatorIcEEEC1B8ue170006Emc, symObjAddr: 0x1538, symBinAddr: 0x10000A858, symSize: 0x3C }
  - { offsetInCU: 0xE386, offset: 0x20F33, size: 0x8, addend: 0x0, symName: __ZNSt3__18ios_base5widthB8ue170006El, symObjAddr: 0x159C, symBinAddr: 0x10000A894, symSize: 0x2C }
  - { offsetInCU: 0xE3CC, offset: 0x20F79, size: 0x8, addend: 0x0, symName: __ZNSt3__112basic_stringIcNS_11char_traitsIcEENS_9allocatorIcEEEC2B8ue170006Emc, symObjAddr: 0x15C8, symBinAddr: 0x10000A8C0, symSize: 0x4C }
  - { offsetInCU: 0xE414, offset: 0x20FC1, size: 0x8, addend: 0x0, symName: __ZNSt3__119ostreambuf_iteratorIcNS_11char_traitsIcEEEC2B8ue170006ERNS_13basic_ostreamIcS2_EE, symObjAddr: 0x1750, symBinAddr: 0x10000A90C, symSize: 0x54 }
  - { offsetInCU: 0xE46A, offset: 0x21017, size: 0x8, addend: 0x0, symName: __ZNKSt3__16__treeIP6PersonNS_4lessIS2_EENS_9allocatorIS2_EEE14__count_uniqueIS2_EEmRKT_, symObjAddr: 0x255C, symBinAddr: 0x10000A960, symSize: 0xC8 }
  - { offsetInCU: 0xE4B9, offset: 0x21066, size: 0x8, addend: 0x0, symName: __ZNKSt3__16__treeIP6PersonNS_4lessIS2_EENS_9allocatorIS2_EEE10value_compB8ue170006Ev, symObjAddr: 0x2624, symBinAddr: 0x10000AA28, symSize: 0x28 }
  - { offsetInCU: 0xE4DF, offset: 0x2108C, size: 0x8, addend: 0x0, symName: __ZNKSt3__117__compressed_pairImNS_4lessIP6PersonEEE6secondB8ue170006Ev, symObjAddr: 0x2680, symBinAddr: 0x10000AA50, symSize: 0x24 }
  - { offsetInCU: 0xE505, offset: 0x210B2, size: 0x8, addend: 0x0, symName: __ZNKSt3__122__compressed_pair_elemINS_4lessIP6PersonEELi1ELb1EE5__getB8ue170006Ev, symObjAddr: 0x26A4, symBinAddr: 0x10000AA74, symSize: 0x14 }
  - { offsetInCU: 0xE52B, offset: 0x210D8, size: 0x8, addend: 0x0, symName: __ZNSt3__16__treeIP6PersonNS_4lessIS2_EENS_9allocatorIS2_EEE5beginB8ue170006Ev, symObjAddr: 0x26B8, symBinAddr: 0x10000AA88, symSize: 0x34 }
  - { offsetInCU: 0xE551, offset: 0x210FE, size: 0x8, addend: 0x0, symName: __ZNSt3__115__tree_iteratorIP6PersonPNS_11__tree_nodeIS2_PvEElEC1B8ue170006EPNS_15__tree_end_nodeIPNS_16__tree_node_baseIS4_EEEE, symObjAddr: 0x2734, symBinAddr: 0x10000AABC, symSize: 0x34 }
  - { offsetInCU: 0xE58A, offset: 0x21137, size: 0x8, addend: 0x0, symName: __ZNSt3__115__tree_iteratorIP6PersonPNS_11__tree_nodeIS2_PvEElEC2B8ue170006EPNS_15__tree_end_nodeIPNS_16__tree_node_baseIS4_EEEE, symObjAddr: 0x2768, symBinAddr: 0x10000AAF0, symSize: 0x20 }
  - { offsetInCU: 0xE5C3, offset: 0x21170, size: 0x8, addend: 0x0, symName: __ZNSt3__16__treeIP6PersonNS_4lessIS2_EENS_9allocatorIS2_EEE3endB8ue170006Ev, symObjAddr: 0x27A8, symBinAddr: 0x10000AB10, symSize: 0x34 }
  - { offsetInCU: 0xE5E9, offset: 0x21196, size: 0x8, addend: 0x0, symName: __ZNSt3__16vectorIP6PersonNS_9allocatorIS2_EEEC2INS_21__tree_const_iteratorIS2_PNS_11__tree_nodeIS2_PvEElEELi0EEET_SD_, symObjAddr: 0x2840, symBinAddr: 0x10000AB44, symSize: 0x94 }
  - { offsetInCU: 0xE664, offset: 0x21211, size: 0x8, addend: 0x0, symName: __ZNSt3__117__compressed_pairIPP6PersonNS_9allocatorIS2_EEEC1B8ue170006IDnNS_18__default_init_tagEEEOT_OT0_, symObjAddr: 0x28D4, symBinAddr: 0x10000ABD8, symSize: 0x3C }
  - { offsetInCU: 0xE6BC, offset: 0x21269, size: 0x8, addend: 0x0, symName: __ZNSt3__16vectorIP6PersonNS_9allocatorIS2_EEE16__init_with_sizeB8ue170006INS_21__tree_const_iteratorIS2_PNS_11__tree_nodeIS2_PvEElEESC_EEvT_T0_m, symObjAddr: 0x294C, symBinAddr: 0x10000AC50, symSize: 0xC8 }
  - { offsetInCU: 0xE730, offset: 0x212DD, size: 0x8, addend: 0x0, symName: __ZNSt3__117__compressed_pairIPP6PersonNS_9allocatorIS2_EEEC2B8ue170006IDnNS_18__default_init_tagEEEOT_OT0_, symObjAddr: 0x2A14, symBinAddr: 0x10000AD18, symSize: 0x40 }
  - { offsetInCU: 0xE788, offset: 0x21335, size: 0x8, addend: 0x0, symName: __ZNSt3__122__compressed_pair_elemIPP6PersonLi0ELb0EEC2B8ue170006IDnvEEOT_, symObjAddr: 0x2A54, symBinAddr: 0x10000AD58, symSize: 0x1C }
  - { offsetInCU: 0xE7CA, offset: 0x21377, size: 0x8, addend: 0x0, symName: __ZNSt3__122__compressed_pair_elemINS_9allocatorIP6PersonEELi1ELb1EEC2B8ue170006ENS_18__default_init_tagE, symObjAddr: 0x2A70, symBinAddr: 0x10000AD74, symSize: 0x2C }
  - { offsetInCU: 0xE7FF, offset: 0x213AC, size: 0x8, addend: 0x0, symName: __ZNSt3__19allocatorIP6PersonEC2B8ue170006Ev, symObjAddr: 0x2A9C, symBinAddr: 0x10000ADA0, symSize: 0x2C }
  - { offsetInCU: 0xE829, offset: 0x213D6, size: 0x8, addend: 0x0, symName: __ZNSt3__116__non_trivial_ifILb1ENS_9allocatorIP6PersonEEEC2B8ue170006Ev, symObjAddr: 0x2AC8, symBinAddr: 0x10000ADCC, symSize: 0x14 }
  - { offsetInCU: 0xE853, offset: 0x21400, size: 0x8, addend: 0x0, symName: __ZNSt3__121__tree_const_iteratorIP6PersonPNS_11__tree_nodeIS2_PvEElEppB8ue170006Ev, symObjAddr: 0x2B6C, symBinAddr: 0x10000AE70, symSize: 0x38 }
  - { offsetInCU: 0xE879, offset: 0x21426, size: 0x8, addend: 0x0, symName: __ZNSt3__16vectorIP6PersonNS_9allocatorIS2_EEE16__destroy_vectorC1B8ue170006ERS5_, symObjAddr: 0x2D28, symBinAddr: 0x10000AF18, symSize: 0x34 }
  - { offsetInCU: 0xE8B2, offset: 0x2145F, size: 0x8, addend: 0x0, symName: __ZNSt3__16vectorIP6PersonNS_9allocatorIS2_EEE11__vallocateB8ue170006Em, symObjAddr: 0x2D5C, symBinAddr: 0x10000AF4C, symSize: 0xAC }
  - { offsetInCU: 0xE8F6, offset: 0x214A3, size: 0x8, addend: 0x0, symName: __ZNSt3__16vectorIP6PersonNS_9allocatorIS2_EEE18__construct_at_endINS_21__tree_const_iteratorIS2_PNS_11__tree_nodeIS2_PvEElEESC_EEvT_T0_m, symObjAddr: 0x2E08, symBinAddr: 0x10000AFF8, symSize: 0x9C }
  - { offsetInCU: 0xE96C, offset: 0x21519, size: 0x8, addend: 0x0, symName: __ZNSt3__128__exception_guard_exceptionsINS_6vectorIP6PersonNS_9allocatorIS3_EEE16__destroy_vectorEE10__completeB8ue170006Ev, symObjAddr: 0x2EA4, symBinAddr: 0x10000B094, symSize: 0x1C }
  - { offsetInCU: 0xE992, offset: 0x2153F, size: 0x8, addend: 0x0, symName: __ZNSt3__128__exception_guard_exceptionsINS_6vectorIP6PersonNS_9allocatorIS3_EEE16__destroy_vectorEED1B8ue170006Ev, symObjAddr: 0x2EC0, symBinAddr: 0x10000B0B0, symSize: 0x2C }
  - { offsetInCU: 0xE9BC, offset: 0x21569, size: 0x8, addend: 0x0, symName: __ZNSt3__128__exception_guard_exceptionsINS_6vectorIP6PersonNS_9allocatorIS3_EEE16__destroy_vectorEEC1B8ue170006ES7_, symObjAddr: 0x2EEC, symBinAddr: 0x10000B0DC, symSize: 0x34 }
  - { offsetInCU: 0xE9F4, offset: 0x215A1, size: 0x8, addend: 0x0, symName: __ZNSt3__128__exception_guard_exceptionsINS_6vectorIP6PersonNS_9allocatorIS3_EEE16__destroy_vectorEEC2B8ue170006ES7_, symObjAddr: 0x2F20, symBinAddr: 0x10000B110, symSize: 0x24 }
  - { offsetInCU: 0xEA2C, offset: 0x215D9, size: 0x8, addend: 0x0, symName: __ZNSt3__16vectorIP6PersonNS_9allocatorIS2_EEE16__destroy_vectorC2B8ue170006ERS5_, symObjAddr: 0x2F44, symBinAddr: 0x10000B134, symSize: 0x20 }
  - { offsetInCU: 0xEA65, offset: 0x21612, size: 0x8, addend: 0x0, symName: __ZNKSt3__16vectorIP6PersonNS_9allocatorIS2_EEE8max_sizeEv, symObjAddr: 0x2F64, symBinAddr: 0x10000B154, symSize: 0x60 }
  - { offsetInCU: 0xEA8D, offset: 0x2163A, size: 0x8, addend: 0x0, symName: __ZNKSt3__16vectorIP6PersonNS_9allocatorIS2_EEE20__throw_length_errorB8ue170006Ev, symObjAddr: 0x2FC4, symBinAddr: 0x10000B1B4, symSize: 0x1C }
  - { offsetInCU: 0xEAB3, offset: 0x21660, size: 0x8, addend: 0x0, symName: __ZNSt3__16vectorIP6PersonNS_9allocatorIS2_EEE7__allocB8ue170006Ev, symObjAddr: 0x3020, symBinAddr: 0x10000B210, symSize: 0x28 }
  - { offsetInCU: 0xEAD9, offset: 0x21686, size: 0x8, addend: 0x0, symName: __ZNSt3__16vectorIP6PersonNS_9allocatorIS2_EEE9__end_capB8ue170006Ev, symObjAddr: 0x3048, symBinAddr: 0x10000B238, symSize: 0x28 }
  - { offsetInCU: 0xEAFF, offset: 0x216AC, size: 0x8, addend: 0x0, symName: __ZNKSt3__16vectorIP6PersonNS_9allocatorIS2_EEE14__annotate_newB8ue170006Em, symObjAddr: 0x3070, symBinAddr: 0x10000B260, symSize: 0xAC }
  - { offsetInCU: 0xEB3E, offset: 0x216EB, size: 0x8, addend: 0x0, symName: __ZNSt3__116allocator_traitsINS_9allocatorIP6PersonEEE8max_sizeB8ue170006IS4_vEEmRKS4_, symObjAddr: 0x3148, symBinAddr: 0x10000B30C, symSize: 0x24 }
  - { offsetInCU: 0xEB6C, offset: 0x21719, size: 0x8, addend: 0x0, symName: __ZNKSt3__16vectorIP6PersonNS_9allocatorIS2_EEE7__allocB8ue170006Ev, symObjAddr: 0x316C, symBinAddr: 0x10000B330, symSize: 0x28 }
  - { offsetInCU: 0xEB92, offset: 0x2173F, size: 0x8, addend: 0x0, symName: __ZNSt3__114numeric_limitsIlE3maxB8ue170006Ev, symObjAddr: 0x3194, symBinAddr: 0x10000B358, symSize: 0x14 }
  - { offsetInCU: 0xEBA6, offset: 0x21753, size: 0x8, addend: 0x0, symName: __ZNKSt3__19allocatorIP6PersonE8max_sizeB8ue170006Ev, symObjAddr: 0x3230, symBinAddr: 0x10000B36C, symSize: 0x14 }
  - { offsetInCU: 0xEBCC, offset: 0x21779, size: 0x8, addend: 0x0, symName: __ZNKSt3__117__compressed_pairIPP6PersonNS_9allocatorIS2_EEE6secondB8ue170006Ev, symObjAddr: 0x3244, symBinAddr: 0x10000B380, symSize: 0x24 }
  - { offsetInCU: 0xEBF2, offset: 0x2179F, size: 0x8, addend: 0x0, symName: __ZNKSt3__122__compressed_pair_elemINS_9allocatorIP6PersonEELi1ELb1EE5__getB8ue170006Ev, symObjAddr: 0x3268, symBinAddr: 0x10000B3A4, symSize: 0x14 }
  - { offsetInCU: 0xEC18, offset: 0x217C5, size: 0x8, addend: 0x0, symName: __ZNSt3__123__libcpp_numeric_limitsIlLb1EE3maxB8ue170006Ev, symObjAddr: 0x327C, symBinAddr: 0x10000B3B8, symSize: 0x8 }
  - { offsetInCU: 0xEC2C, offset: 0x217D9, size: 0x8, addend: 0x0, symName: __ZNSt12length_errorC1B8ue170006EPKc, symObjAddr: 0x32E8, symBinAddr: 0x10000B424, symSize: 0x34 }
  - { offsetInCU: 0xEC64, offset: 0x21811, size: 0x8, addend: 0x0, symName: __ZNSt12length_errorC2B8ue170006EPKc, symObjAddr: 0x331C, symBinAddr: 0x10000B458, symSize: 0x4C }
  - { offsetInCU: 0xEC9C, offset: 0x21849, size: 0x8, addend: 0x0, symName: __ZNSt3__19allocatorIP6PersonE8allocateB8ue170006Em, symObjAddr: 0x3368, symBinAddr: 0x10000B4A4, symSize: 0x58 }
  - { offsetInCU: 0xECD0, offset: 0x2187D, size: 0x8, addend: 0x0, symName: __ZNSt3__117__compressed_pairIPP6PersonNS_9allocatorIS2_EEE6secondB8ue170006Ev, symObjAddr: 0x3440, symBinAddr: 0x10000B4FC, symSize: 0x24 }
  - { offsetInCU: 0xECF6, offset: 0x218A3, size: 0x8, addend: 0x0, symName: __ZNSt3__122__compressed_pair_elemINS_9allocatorIP6PersonEELi1ELb1EE5__getB8ue170006Ev, symObjAddr: 0x3464, symBinAddr: 0x10000B520, symSize: 0x14 }
  - { offsetInCU: 0xED1C, offset: 0x218C9, size: 0x8, addend: 0x0, symName: __ZNSt3__117__compressed_pairIPP6PersonNS_9allocatorIS2_EEE5firstB8ue170006Ev, symObjAddr: 0x3478, symBinAddr: 0x10000B534, symSize: 0x24 }
  - { offsetInCU: 0xED42, offset: 0x218EF, size: 0x8, addend: 0x0, symName: __ZNSt3__122__compressed_pair_elemIPP6PersonLi0ELb0EE5__getB8ue170006Ev, symObjAddr: 0x349C, symBinAddr: 0x10000B558, symSize: 0x14 }
  - { offsetInCU: 0xED68, offset: 0x21915, size: 0x8, addend: 0x0, symName: __ZNKSt3__16vectorIP6PersonNS_9allocatorIS2_EEE31__annotate_contiguous_containerB8ue170006EPKvS7_S7_S7_, symObjAddr: 0x34B0, symBinAddr: 0x10000B56C, symSize: 0x20 }
  - { offsetInCU: 0xEDBE, offset: 0x2196B, size: 0x8, addend: 0x0, symName: __ZNKSt3__16vectorIP6PersonNS_9allocatorIS2_EEE4dataB8ue170006Ev, symObjAddr: 0x34D0, symBinAddr: 0x10000B58C, symSize: 0x28 }
  - { offsetInCU: 0xEDE4, offset: 0x21991, size: 0x8, addend: 0x0, symName: __ZNKSt3__16vectorIP6PersonNS_9allocatorIS2_EEE8capacityB8ue170006Ev, symObjAddr: 0x34F8, symBinAddr: 0x10000B5B4, symSize: 0x40 }
  - { offsetInCU: 0xEE0A, offset: 0x219B7, size: 0x8, addend: 0x0, symName: __ZNKSt3__16vectorIP6PersonNS_9allocatorIS2_EEE9__end_capB8ue170006Ev, symObjAddr: 0x354C, symBinAddr: 0x10000B608, symSize: 0x28 }
  - { offsetInCU: 0xEE30, offset: 0x219DD, size: 0x8, addend: 0x0, symName: __ZNKSt3__117__compressed_pairIPP6PersonNS_9allocatorIS2_EEE5firstB8ue170006Ev, symObjAddr: 0x3574, symBinAddr: 0x10000B630, symSize: 0x24 }
  - { offsetInCU: 0xEE56, offset: 0x21A03, size: 0x8, addend: 0x0, symName: __ZNKSt3__122__compressed_pair_elemIPP6PersonLi0ELb0EE5__getB8ue170006Ev, symObjAddr: 0x3598, symBinAddr: 0x10000B654, symSize: 0x14 }
  - { offsetInCU: 0xEE95, offset: 0x21A42, size: 0x8, addend: 0x0, symName: __ZNSt3__16vectorIP6PersonNS_9allocatorIS2_EEE21_ConstructTransactionC1B8ue170006ERS5_m, symObjAddr: 0x35AC, symBinAddr: 0x10000B668, symSize: 0x3C }
  - { offsetInCU: 0xEEDD, offset: 0x21A8A, size: 0x8, addend: 0x0, symName: __ZNSt3__16vectorIP6PersonNS_9allocatorIS2_EEE21_ConstructTransactionD1B8ue170006Ev, symObjAddr: 0x3678, symBinAddr: 0x10000B734, symSize: 0x2C }
  - { offsetInCU: 0xEF07, offset: 0x21AB4, size: 0x8, addend: 0x0, symName: __ZNSt3__16vectorIP6PersonNS_9allocatorIS2_EEE21_ConstructTransactionC2B8ue170006ERS5_m, symObjAddr: 0x36A4, symBinAddr: 0x10000B760, symSize: 0x44 }
  - { offsetInCU: 0xEF54, offset: 0x21B01, size: 0x8, addend: 0x0, symName: __ZNSt3__14pairINS_21__tree_const_iteratorIP6PersonPNS_11__tree_nodeIS3_PvEElEES8_EC1B8ue170006IS8_S8_LS5_0EEEOT_OT0_, symObjAddr: 0x3930, symBinAddr: 0x10000B9EC, symSize: 0x3C }
  - { offsetInCU: 0xEFB2, offset: 0x21B5F, size: 0x8, addend: 0x0, symName: __ZNSt3__14pairINS_21__tree_const_iteratorIP6PersonPNS_11__tree_nodeIS3_PvEElEES8_EC2B8ue170006IS8_S8_LS5_0EEEOT_OT0_, symObjAddr: 0x396C, symBinAddr: 0x10000BA28, symSize: 0x34 }
  - { offsetInCU: 0xF010, offset: 0x21BBD, size: 0x8, addend: 0x0, symName: __ZNSt3__118__unwrap_iter_implINS_21__tree_const_iteratorIP6PersonPNS_11__tree_nodeIS3_PvEElEELb0EE8__unwrapB8ue170006ES8_, symObjAddr: 0x39A0, symBinAddr: 0x10000BA5C, symSize: 0x1C }
  - { offsetInCU: 0xF033, offset: 0x21BE0, size: 0x8, addend: 0x0, symName: __ZNSt3__129_AllocatorDestroyRangeReverseINS_9allocatorIP6PersonEEPS3_EC1B8ue170006ERS4_RS5_S8_, symObjAddr: 0x3A08, symBinAddr: 0x10000BAC4, symSize: 0x44 }
  - { offsetInCU: 0xF08A, offset: 0x21C37, size: 0x8, addend: 0x0, symName: __ZNSt3__116allocator_traitsINS_9allocatorIP6PersonEEE9constructB8ue170006IS3_JRKS3_EvEEvRS4_PT_DpOT0_, symObjAddr: 0x3A4C, symBinAddr: 0x10000BB08, symSize: 0x34 }
  - { offsetInCU: 0xF0E1, offset: 0x21C8E, size: 0x8, addend: 0x0, symName: __ZNKSt3__121__tree_const_iteratorIP6PersonPNS_11__tree_nodeIS2_PvEElEdeB8ue170006Ev, symObjAddr: 0x3A80, symBinAddr: 0x10000BB3C, symSize: 0x28 }
  - { offsetInCU: 0xF107, offset: 0x21CB4, size: 0x8, addend: 0x0, symName: __ZNSt3__128__exception_guard_exceptionsINS_29_AllocatorDestroyRangeReverseINS_9allocatorIP6PersonEEPS4_EEE10__completeB8ue170006Ev, symObjAddr: 0x3AA8, symBinAddr: 0x10000BB64, symSize: 0x1C }
  - { offsetInCU: 0xF12D, offset: 0x21CDA, size: 0x8, addend: 0x0, symName: __ZNSt3__128__exception_guard_exceptionsINS_29_AllocatorDestroyRangeReverseINS_9allocatorIP6PersonEEPS4_EEED1B8ue170006Ev, symObjAddr: 0x3AC4, symBinAddr: 0x10000BB80, symSize: 0x2C }
  - { offsetInCU: 0xF157, offset: 0x21D04, size: 0x8, addend: 0x0, symName: __ZNSt3__128__exception_guard_exceptionsINS_29_AllocatorDestroyRangeReverseINS_9allocatorIP6PersonEEPS4_EEEC1B8ue170006ES7_, symObjAddr: 0x3AF0, symBinAddr: 0x10000BBAC, symSize: 0x34 }
  - { offsetInCU: 0xF190, offset: 0x21D3D, size: 0x8, addend: 0x0, symName: __ZNSt3__128__exception_guard_exceptionsINS_29_AllocatorDestroyRangeReverseINS_9allocatorIP6PersonEEPS4_EEEC2B8ue170006ES7_, symObjAddr: 0x3B24, symBinAddr: 0x10000BBE0, symSize: 0x30 }
  - { offsetInCU: 0xF1C9, offset: 0x21D76, size: 0x8, addend: 0x0, symName: __ZNSt3__129_AllocatorDestroyRangeReverseINS_9allocatorIP6PersonEEPS3_EC2B8ue170006ERS4_RS5_S8_, symObjAddr: 0x3B54, symBinAddr: 0x10000BC10, symSize: 0x38 }
  - { offsetInCU: 0xF220, offset: 0x21DCD, size: 0x8, addend: 0x0, symName: __ZNSt3__19allocatorIP6PersonE9constructB8ue170006IS2_JRKS2_EEEvPT_DpOT0_, symObjAddr: 0x3B8C, symBinAddr: 0x10000BC48, symSize: 0x28 }
  - { offsetInCU: 0xF276, offset: 0x21E23, size: 0x8, addend: 0x0, symName: __ZNKSt3__121__tree_const_iteratorIP6PersonPNS_11__tree_nodeIS2_PvEElE8__get_npB8ue170006Ev, symObjAddr: 0x3BB4, symBinAddr: 0x10000BC70, symSize: 0x18 }
  - { offsetInCU: 0xF29C, offset: 0x21E49, size: 0x8, addend: 0x0, symName: __ZNSt3__128__exception_guard_exceptionsINS_29_AllocatorDestroyRangeReverseINS_9allocatorIP6PersonEEPS4_EEED2B8ue170006Ev, symObjAddr: 0x3BCC, symBinAddr: 0x10000BC88, symSize: 0x50 }
  - { offsetInCU: 0xF2C6, offset: 0x21E73, size: 0x8, addend: 0x0, symName: __ZNKSt3__129_AllocatorDestroyRangeReverseINS_9allocatorIP6PersonEEPS3_EclB8ue170006Ev, symObjAddr: 0x3C1C, symBinAddr: 0x10000BCD8, symSize: 0x68 }
  - { offsetInCU: 0xF2EC, offset: 0x21E99, size: 0x8, addend: 0x0, symName: __ZNSt3__116reverse_iteratorIPP6PersonEC1B8ue170006ES3_, symObjAddr: 0x3CF4, symBinAddr: 0x10000BDB0, symSize: 0x34 }
  - { offsetInCU: 0xF324, offset: 0x21ED1, size: 0x8, addend: 0x0, symName: __ZNSt3__116allocator_traitsINS_9allocatorIP6PersonEEE7destroyB8ue170006IS3_vEEvRS4_PT_, symObjAddr: 0x3D70, symBinAddr: 0x10000BE2C, symSize: 0x2C }
  - { offsetInCU: 0xF361, offset: 0x21F0E, size: 0x8, addend: 0x0, symName: __ZNSt3__116reverse_iteratorIPP6PersonEppB8ue170006Ev, symObjAddr: 0x3DC0, symBinAddr: 0x10000BE7C, symSize: 0x20 }
  - { offsetInCU: 0xF387, offset: 0x21F34, size: 0x8, addend: 0x0, symName: __ZNKSt3__116reverse_iteratorIPP6PersonE4baseB8ue170006Ev, symObjAddr: 0x3DE0, symBinAddr: 0x10000BE9C, symSize: 0x18 }
  - { offsetInCU: 0xF3AD, offset: 0x21F5A, size: 0x8, addend: 0x0, symName: __ZNSt3__19allocatorIP6PersonE7destroyB8ue170006EPS2_, symObjAddr: 0x3DF8, symBinAddr: 0x10000BEB4, symSize: 0x14 }
  - { offsetInCU: 0xF3E6, offset: 0x21F93, size: 0x8, addend: 0x0, symName: __ZNSt3__119__to_address_helperINS_16reverse_iteratorIPP6PersonEEvE6__callB8ue170006ERKS5_, symObjAddr: 0x3E0C, symBinAddr: 0x10000BEC8, symSize: 0x38 }
  - { offsetInCU: 0xF409, offset: 0x21FB6, size: 0x8, addend: 0x0, symName: __ZNKSt3__116reverse_iteratorIPP6PersonEptB8ue170006Ev, symObjAddr: 0x3E44, symBinAddr: 0x10000BF00, symSize: 0x24 }
  - { offsetInCU: 0xF42F, offset: 0x21FDC, size: 0x8, addend: 0x0, symName: __ZNKSt3__116reverse_iteratorIPP6PersonEdeB8ue170006Ev, symObjAddr: 0x3E68, symBinAddr: 0x10000BF24, symSize: 0x28 }
  - { offsetInCU: 0xF464, offset: 0x22011, size: 0x8, addend: 0x0, symName: __ZNSt3__116reverse_iteratorIPP6PersonEC2B8ue170006ES3_, symObjAddr: 0x3E90, symBinAddr: 0x10000BF4C, symSize: 0x28 }
  - { offsetInCU: 0xF49C, offset: 0x22049, size: 0x8, addend: 0x0, symName: __ZNSt3__118__unwrap_iter_implIPP6PersonLb1EE8__unwrapB8ue170006ES3_, symObjAddr: 0x3EB8, symBinAddr: 0x10000BF74, symSize: 0x24 }
  - { offsetInCU: 0xF4BF, offset: 0x2206C, size: 0x8, addend: 0x0, symName: __ZNSt3__118__unwrap_iter_implIPP6PersonLb1EE8__rewrapB8ue170006ES3_S3_, symObjAddr: 0x3EDC, symBinAddr: 0x10000BF98, symSize: 0x50 }
  - { offsetInCU: 0xF4F0, offset: 0x2209D, size: 0x8, addend: 0x0, symName: __ZNSt3__16vectorIP6PersonNS_9allocatorIS2_EEE21_ConstructTransactionD2B8ue170006Ev, symObjAddr: 0x3F2C, symBinAddr: 0x10000BFE8, symSize: 0x20 }
  - { offsetInCU: 0xF51A, offset: 0x220C7, size: 0x8, addend: 0x0, symName: __ZNSt3__128__exception_guard_exceptionsINS_6vectorIP6PersonNS_9allocatorIS3_EEE16__destroy_vectorEED2B8ue170006Ev, symObjAddr: 0x3F4C, symBinAddr: 0x10000C008, symSize: 0x50 }
  - { offsetInCU: 0xF544, offset: 0x220F1, size: 0x8, addend: 0x0, symName: __ZNSt3__16vectorIP6PersonNS_9allocatorIS2_EEE16__destroy_vectorclB8ue170006Ev, symObjAddr: 0x3F9C, symBinAddr: 0x10000C058, symSize: 0x90 }
  - { offsetInCU: 0xF56A, offset: 0x22117, size: 0x8, addend: 0x0, symName: __ZNSt3__16vectorIP6PersonNS_9allocatorIS2_EEE7__clearB8ue170006Ev, symObjAddr: 0x402C, symBinAddr: 0x10000C0E8, symSize: 0x28 }
  - { offsetInCU: 0xF590, offset: 0x2213D, size: 0x8, addend: 0x0, symName: __ZNKSt3__16vectorIP6PersonNS_9allocatorIS2_EEE17__annotate_deleteB8ue170006Ev, symObjAddr: 0x4054, symBinAddr: 0x10000C110, symSize: 0xB8 }
  - { offsetInCU: 0xF5B6, offset: 0x22163, size: 0x8, addend: 0x0, symName: __ZNSt3__116allocator_traitsINS_9allocatorIP6PersonEEE10deallocateB8ue170006ERS4_PS3_m, symObjAddr: 0x410C, symBinAddr: 0x10000C1C8, symSize: 0x34 }
  - { offsetInCU: 0xF5F8, offset: 0x221A5, size: 0x8, addend: 0x0, symName: __ZNSt3__16vectorIP6PersonNS_9allocatorIS2_EEE22__base_destruct_at_endB8ue170006EPS2_, symObjAddr: 0x4140, symBinAddr: 0x10000C1FC, symSize: 0x8C }
  - { offsetInCU: 0xF63C, offset: 0x221E9, size: 0x8, addend: 0x0, symName: __ZNKSt3__16vectorIP6PersonNS_9allocatorIS2_EEE4sizeB8ue170006Ev, symObjAddr: 0x41CC, symBinAddr: 0x10000C288, symSize: 0x28 }
  - { offsetInCU: 0xF662, offset: 0x2220F, size: 0x8, addend: 0x0, symName: __ZNSt3__19allocatorIP6PersonE10deallocateB8ue170006EPS2_m, symObjAddr: 0x41F4, symBinAddr: 0x10000C2B0, symSize: 0x40 }
  - { offsetInCU: 0xF6A4, offset: 0x22251, size: 0x8, addend: 0x0, symName: __ZNSt3__16vectorIP6PersonNS_9allocatorIS2_EEED2B8ue170006Ev, symObjAddr: 0x4234, symBinAddr: 0x10000C2F0, symSize: 0x40 }
  - { offsetInCU: 0xF6CE, offset: 0x2227B, size: 0x8, addend: 0x0, symName: __ZNSt3__16vectorIP6PersonNS_9allocatorIS2_EEE11__make_iterB8ue170006EPS2_, symObjAddr: 0x4274, symBinAddr: 0x10000C330, symSize: 0x30 }
  - { offsetInCU: 0xF703, offset: 0x222B0, size: 0x8, addend: 0x0, symName: __ZNSt3__111__wrap_iterIPP6PersonEC1B8ue170006ES3_, symObjAddr: 0x42A4, symBinAddr: 0x10000C360, symSize: 0x34 }
  - { offsetInCU: 0xF73B, offset: 0x222E8, size: 0x8, addend: 0x0, symName: __ZNSt3__111__wrap_iterIPP6PersonEC2B8ue170006ES3_, symObjAddr: 0x42D8, symBinAddr: 0x10000C394, symSize: 0x20 }
  - { offsetInCU: 0xF7AB, offset: 0x22358, size: 0x8, addend: 0x0, symName: __ZNK7CompareclEPK6PersonS2_, symObjAddr: 0x4924, symBinAddr: 0x10000C9E0, symSize: 0x48 }
  - { offsetInCU: 0xF7ED, offset: 0x2239A, size: 0x8, addend: 0x0, symName: __ZNSt3__18_IterOpsINS_17_ClassicAlgPolicyEE9iter_swapB8ue170006IRPP6PersonS7_EEvOT_OT0_, symObjAddr: 0x496C, symBinAddr: 0x10000CA28, symSize: 0x34 }
  - { offsetInCU: 0xF835, offset: 0x223E2, size: 0x8, addend: 0x0, symName: __ZNSt3__18_IterOpsINS_17_ClassicAlgPolicyEE9iter_swapB8ue170006IRPP6PersonS6_EEvOT_OT0_, symObjAddr: 0x4EF4, symBinAddr: 0x10000CFB0, symSize: 0x34 }
  - { offsetInCU: 0xF87D, offset: 0x2242A, size: 0x8, addend: 0x0, symName: __ZNSt3__18_IterOpsINS_17_ClassicAlgPolicyEE11__iter_moveB8ue170006IRPP6PersonEENS_9enable_ifIXsr12is_referenceIDTdeclsr3stdE7declvalIRT_EEEEE5valueEDTclsr3stdE4movedeclsr3stdE7declvalISA_EEEEE4typeEOS9_, symObjAddr: 0x5EE4, symBinAddr: 0x10000DCD4, symSize: 0x28 }
  - { offsetInCU: 0xF8A9, offset: 0x22456, size: 0x8, addend: 0x0, symName: __ZNSt3__18_IterOpsINS_17_ClassicAlgPolicyEE25__validate_iter_referenceB8ue170006IRPP6PersonEEvv, symObjAddr: 0x5F0C, symBinAddr: 0x10000DCFC, symSize: 0x4 }
  - { offsetInCU: 0xF8C7, offset: 0x22474, size: 0x8, addend: 0x0, symName: __ZNSt3__18_IterOpsINS_17_ClassicAlgPolicyEE4nextB8ue170006IPP6PersonEET_S7_S7_, symObjAddr: 0x5F10, symBinAddr: 0x10000DD00, symSize: 0x18 }
  - { offsetInCU: 0xF8FE, offset: 0x224AB, size: 0x8, addend: 0x0, symName: __ZNSt3__18_IterOpsINS_17_ClassicAlgPolicyEE9iter_swapB8ue170006IPP6PersonS6_EEvOT_OT0_, symObjAddr: 0x6EA8, symBinAddr: 0x10000EC98, symSize: 0x34 }
  - { offsetInCU: 0xF95A, offset: 0x22507, size: 0x8, addend: 0x0, symName: __ZNSt3__14pairIPP6PersonbEC1B8ue170006IRS3_RbLPv0EEEOT_OT0_, symObjAddr: 0x6EF8, symBinAddr: 0x10000ECE8, symSize: 0x3C }
  - { offsetInCU: 0xF9B8, offset: 0x22565, size: 0x8, addend: 0x0, symName: __ZNSt3__14pairIPP6PersonbEC2B8ue170006IRS3_RbLPv0EEEOT_OT0_, symObjAddr: 0x6F34, symBinAddr: 0x10000ED24, symSize: 0x38 }
  - { offsetInCU: 0xFA16, offset: 0x225C3, size: 0x8, addend: 0x0, symName: __ZNSt3__118__unwrap_iter_implINS_11__wrap_iterIPP6PersonEELb1EE8__unwrapB8ue170006ES5_, symObjAddr: 0x6F6C, symBinAddr: 0x10000ED5C, symSize: 0x28 }
  - { offsetInCU: 0xFA43, offset: 0x225F0, size: 0x8, addend: 0x0, symName: __ZNSt3__119__to_address_helperINS_11__wrap_iterIPP6PersonEEvE6__callB8ue170006ERKS5_, symObjAddr: 0x6FB8, symBinAddr: 0x10000EDA8, symSize: 0x30 }
  - { offsetInCU: 0xFA66, offset: 0x22613, size: 0x8, addend: 0x0, symName: __ZNSt3__114pointer_traitsINS_11__wrap_iterIPP6PersonEEE10to_addressB8ue170006ES5_, symObjAddr: 0x6FE8, symBinAddr: 0x10000EDD8, symSize: 0x2C }
  - { offsetInCU: 0x4149, offset: 0x26864, size: 0x8, addend: 0x0, symName: __ZNSt3__1rsB8ue170006IcNS_11char_traitsIcEENS_9allocatorIcEEEERNS_13basic_istreamIT_T0_EES9_RNS_12basic_stringIS6_S7_T1_EE, symObjAddr: 0x9C, symBinAddr: 0x10000EEA0, symSize: 0x31C }
  - { offsetInCU: 0x5BF6, offset: 0x28311, size: 0x8, addend: 0x0, symName: __ZNSt3__17replaceB8ue170006INS_11__wrap_iterIPcEEcEEvT_S4_RKT0_S7_, symObjAddr: 0xA7C, symBinAddr: 0x10000F680, symSize: 0x94 }
  - { offsetInCU: 0x5C66, offset: 0x28381, size: 0x8, addend: 0x0, symName: __ZNSt3__1plB8ue170006IcNS_11char_traitsIcEENS_9allocatorIcEEEENS_12basic_stringIT_T0_T1_EEOS9_PKS6_, symObjAddr: 0x1F94, symBinAddr: 0x100010AB4, symSize: 0x40 }
  - { offsetInCU: 0x5CBE, offset: 0x283D9, size: 0x8, addend: 0x0, symName: __ZNSt3__1neB8ue170006IPcEEbRKNS_11__wrap_iterIT_EES6_, symObjAddr: 0x2FD8, symBinAddr: 0x100010D20, symSize: 0x34 }
  - { offsetInCU: 0x5D01, offset: 0x2841C, size: 0x8, addend: 0x0, symName: __ZNSt3__1eqB8ue170006IPcEEbRKNS_11__wrap_iterIT_EES6_, symObjAddr: 0x3044, symBinAddr: 0x100010D8C, symSize: 0x48 }
  - { offsetInCU: 0x5D44, offset: 0x2845F, size: 0x8, addend: 0x0, symName: __ZNSt3__110__str_findB8ue170006IcmNS_11char_traitsIcEELm18446744073709551615EEET0_PKT_S3_S6_S3_S3_, symObjAddr: 0x30A4, symBinAddr: 0x100010DEC, symSize: 0xE4 }
  - { offsetInCU: 0x5DEB, offset: 0x28506, size: 0x8, addend: 0x0, symName: __ZNSt3__118__search_substringB8ue170006IcNS_11char_traitsIcEEEEPKT_S5_S5_S5_S5_, symObjAddr: 0x31B0, symBinAddr: 0x100010ED0, symSize: 0x154 }
  - { offsetInCU: 0x5E85, offset: 0x285A0, size: 0x8, addend: 0x0, symName: __ZNSt3__118__constexpr_memchrB8ue170006IKccEEPT_S3_T0_m, symObjAddr: 0x33A8, symBinAddr: 0x100011094, symSize: 0x40 }
  - { offsetInCU: 0x83DC, offset: 0x2AAF7, size: 0x8, addend: 0x0, symName: __Z9read_termRNSt3__113basic_istreamIcNS_11char_traitsIcEEEERNS_12basic_stringIcS2_NS_9allocatorIcEEEE, symObjAddr: 0x0, symBinAddr: 0x10000EE04, symSize: 0x9C }
  - { offsetInCU: 0x842A, offset: 0x2AB45, size: 0x8, addend: 0x0, symName: __ZNKSt3__19basic_iosIcNS_11char_traitsIcEEEntB8ue170006Ev, symObjAddr: 0x3B8, symBinAddr: 0x10000F1BC, symSize: 0x28 }
  - { offsetInCU: 0x8450, offset: 0x2AB6B, size: 0x8, addend: 0x0, symName: __ZNSt16invalid_argumentC1B8ue170006EPKc, symObjAddr: 0x3E0, symBinAddr: 0x10000F1E4, symSize: 0x34 }
  - { offsetInCU: 0x87D1, offset: 0x2AEEC, size: 0x8, addend: 0x0, symName: __ZN5QueryC2ERKNSt3__112basic_stringIcNS0_11char_traitsIcEENS0_9allocatorIcEEEE, symObjAddr: 0x414, symBinAddr: 0x10000F218, symSize: 0x43C }
  - { offsetInCU: 0x8891, offset: 0x2AFAC, size: 0x8, addend: 0x0, symName: __ZNSt3__112basic_stringIcNS_11char_traitsIcEENS_9allocatorIcEEEaSB8ue170006EPKc, symObjAddr: 0xA50, symBinAddr: 0x10000F654, symSize: 0x2C }
  - { offsetInCU: 0x88C6, offset: 0x2AFE1, size: 0x8, addend: 0x0, symName: __ZNSt3__112basic_stringIcNS_11char_traitsIcEENS_9allocatorIcEEE5beginB8ue170006Ev, symObjAddr: 0xB10, symBinAddr: 0x10000F714, symSize: 0x4C }
  - { offsetInCU: 0x88EC, offset: 0x2B007, size: 0x8, addend: 0x0, symName: __ZNSt3__112basic_stringIcNS_11char_traitsIcEENS_9allocatorIcEEE3endB8ue170006Ev, symObjAddr: 0xB5C, symBinAddr: 0x10000F760, symSize: 0x54 }
  - { offsetInCU: 0x8912, offset: 0x2B02D, size: 0x8, addend: 0x0, symName: __ZNKSt3__112basic_stringIcNS_11char_traitsIcEENS_9allocatorIcEEE6lengthB8ue170006Ev, symObjAddr: 0xBB0, symBinAddr: 0x10000F7B4, symSize: 0x24 }
  - { offsetInCU: 0x8938, offset: 0x2B053, size: 0x8, addend: 0x0, symName: __ZNKSt3__112basic_stringIcNS_11char_traitsIcEENS_9allocatorIcEEE4findB8ue170006EPKcm, symObjAddr: 0xBD4, symBinAddr: 0x10000F7D8, symSize: 0x74 }
  - { offsetInCU: 0x897E, offset: 0x2B099, size: 0x8, addend: 0x0, symName: __ZNKSt3__112basic_stringIcNS_11char_traitsIcEENS_9allocatorIcEEE6substrB8ue170006Emm, symObjAddr: 0xC48, symBinAddr: 0x10000F84C, symSize: 0x68 }
  - { offsetInCU: 0x89C2, offset: 0x2B0DD, size: 0x8, addend: 0x0, symName: __ZNSt3__112basic_stringIcNS_11char_traitsIcEENS_9allocatorIcEEEaSB8ue170006EOS5_, symObjAddr: 0xCB0, symBinAddr: 0x10000F8B4, symSize: 0x34 }
  - { offsetInCU: 0x89F7, offset: 0x2B112, size: 0x8, addend: 0x0, symName: __ZNK5Query8validateEbb, symObjAddr: 0xCE4, symBinAddr: 0x10000F8E8, symSize: 0x824 }
  - { offsetInCU: 0x8A40, offset: 0x2B15B, size: 0x8, addend: 0x0, symName: __ZN5QueryC1ERKNSt3__112basic_stringIcNS0_11char_traitsIcEENS0_9allocatorIcEEEE, symObjAddr: 0x1548, symBinAddr: 0x10001010C, symSize: 0x34 }
  - { offsetInCU: 0x8A7A, offset: 0x2B195, size: 0x8, addend: 0x0, symName: __ZN5QueryC2ERKNSt3__112basic_stringIcNS0_11char_traitsIcEENS0_9allocatorIcEEEES8_4PMod4SMod, symObjAddr: 0x157C, symBinAddr: 0x100010140, symSize: 0xC4 }
  - { offsetInCU: 0x8ADE, offset: 0x2B1F9, size: 0x8, addend: 0x0, symName: __ZN5QueryC1ERKNSt3__112basic_stringIcNS0_11char_traitsIcEENS0_9allocatorIcEEEES8_4PMod4SMod, symObjAddr: 0x1640, symBinAddr: 0x100010204, symSize: 0x4C }
  - { offsetInCU: 0x8B42, offset: 0x2B25D, size: 0x8, addend: 0x0, symName: __ZNK5Query3runERK8GenePool, symObjAddr: 0x168C, symBinAddr: 0x100010250, symSize: 0x830 }
  - { offsetInCU: 0x8BD3, offset: 0x2B2EE, size: 0x8, addend: 0x0, symName: __ZNSt16invalid_argumentC1B8ue170006ERKNSt3__112basic_stringIcNS0_11char_traitsIcEENS0_9allocatorIcEEEE, symObjAddr: 0x1EBC, symBinAddr: 0x100010A80, symSize: 0x34 }
  - { offsetInCU: 0x8C0B, offset: 0x2B326, size: 0x8, addend: 0x0, symName: __ZNSt16invalid_argumentC2B8ue170006EPKc, symObjAddr: 0x1FD4, symBinAddr: 0x100010AF4, symSize: 0x4C }
  - { offsetInCU: 0x8C48, offset: 0x2B363, size: 0x8, addend: 0x0, symName: __ZNSt16invalid_argumentC2B8ue170006ERKNSt3__112basic_stringIcNS0_11char_traitsIcEENS0_9allocatorIcEEEE, symObjAddr: 0x2120, symBinAddr: 0x100010B40, symSize: 0x4C }
  - { offsetInCU: 0x8C9E, offset: 0x2B3B9, size: 0x8, addend: 0x0, symName: __ZNSt3__115basic_streambufIcNS_11char_traitsIcEEE5sgetcB8ue170006Ev, symObjAddr: 0x2328, symBinAddr: 0x100010B8C, symSize: 0x70 }
  - { offsetInCU: 0x8CC9, offset: 0x2B3E4, size: 0x8, addend: 0x0, symName: __ZNKSt3__15ctypeIcE2isB8ue170006Ejc, symObjAddr: 0x23E0, symBinAddr: 0x100010BFC, symSize: 0x7C }
  - { offsetInCU: 0x8D0C, offset: 0x2B427, size: 0x8, addend: 0x0, symName: __Z7isasciii, symObjAddr: 0x2884, symBinAddr: 0x100010C78, symSize: 0x24 }
  - { offsetInCU: 0x8D39, offset: 0x2B454, size: 0x8, addend: 0x0, symName: __ZNSt3__112basic_stringIcNS_11char_traitsIcEENS_9allocatorIcEEE15__make_iteratorB8ue170006EPc, symObjAddr: 0x2F00, symBinAddr: 0x100010C9C, symSize: 0x30 }
  - { offsetInCU: 0x8D6E, offset: 0x2B489, size: 0x8, addend: 0x0, symName: __ZNSt3__111__wrap_iterIPcEC1B8ue170006ES1_, symObjAddr: 0x2F84, symBinAddr: 0x100010CCC, symSize: 0x34 }
  - { offsetInCU: 0x8DA6, offset: 0x2B4C1, size: 0x8, addend: 0x0, symName: __ZNSt3__111__wrap_iterIPcEC2B8ue170006ES1_, symObjAddr: 0x2FB8, symBinAddr: 0x100010D00, symSize: 0x20 }
  - { offsetInCU: 0x8DDE, offset: 0x2B4F9, size: 0x8, addend: 0x0, symName: __ZNKSt3__111__wrap_iterIPcEdeB8ue170006Ev, symObjAddr: 0x300C, symBinAddr: 0x100010D54, symSize: 0x18 }
  - { offsetInCU: 0x8E04, offset: 0x2B51F, size: 0x8, addend: 0x0, symName: __ZNSt3__111__wrap_iterIPcEppB8ue170006Ev, symObjAddr: 0x3024, symBinAddr: 0x100010D6C, symSize: 0x20 }
  - { offsetInCU: 0x8E2A, offset: 0x2B545, size: 0x8, addend: 0x0, symName: __ZNKSt3__111__wrap_iterIPcE4baseB8ue170006Ev, symObjAddr: 0x308C, symBinAddr: 0x100010DD4, symSize: 0x18 }
  - { offsetInCU: 0x8E50, offset: 0x2B56B, size: 0x8, addend: 0x0, symName: __ZNSt3__111char_traitsIcE4findB8ue170006EPKcmRS2_, symObjAddr: 0x3304, symBinAddr: 0x100011024, symSize: 0x70 }
  - { offsetInCU: 0x8E8F, offset: 0x2B5AA, size: 0x8, addend: 0x0, symName: __ZNSt3__19allocatorIcEC1B8ue170006Ev, symObjAddr: 0x34B4, symBinAddr: 0x1000110D4, symSize: 0x2C }
  - { offsetInCU: 0x8EB9, offset: 0x2B5D4, size: 0x8, addend: 0x0, symName: __ZNSt3__112basic_stringIcNS_11char_traitsIcEENS_9allocatorIcEEE13__move_assignB8ue170006ERS5_NS_17integral_constantIbLb1EEE, symObjAddr: 0x34E0, symBinAddr: 0x100011100, symSize: 0xC8 }
  - { offsetInCU: 0x8EFC, offset: 0x2B617, size: 0x8, addend: 0x0, symName: __ZNSt3__116allocator_traitsINS_9allocatorIcEEE10deallocateB8ue170006ERS2_Pcm, symObjAddr: 0x35A8, symBinAddr: 0x1000111C8, symSize: 0x34 }
  - { offsetInCU: 0x8F3E, offset: 0x2B659, size: 0x8, addend: 0x0, symName: __ZNSt3__112basic_stringIcNS_11char_traitsIcEENS_9allocatorIcEEE7__allocB8ue170006Ev, symObjAddr: 0x35DC, symBinAddr: 0x1000111FC, symSize: 0x24 }
  - { offsetInCU: 0x8F64, offset: 0x2B67F, size: 0x8, addend: 0x0, symName: __ZNKSt3__112basic_stringIcNS_11char_traitsIcEENS_9allocatorIcEEE14__get_long_capB8ue170006Ev, symObjAddr: 0x3600, symBinAddr: 0x100011220, symSize: 0x30 }
  - { offsetInCU: 0x8F8A, offset: 0x2B6A5, size: 0x8, addend: 0x0, symName: __ZNSt3__112basic_stringIcNS_11char_traitsIcEENS_9allocatorIcEEE19__move_assign_allocB8ue170006ERS5_, symObjAddr: 0x3630, symBinAddr: 0x100011250, symSize: 0x2C }
  - { offsetInCU: 0x8FBF, offset: 0x2B6DA, size: 0x8, addend: 0x0, symName: __ZNSt3__19allocatorIcE10deallocateB8ue170006EPcm, symObjAddr: 0x365C, symBinAddr: 0x10001127C, symSize: 0x40 }
  - { offsetInCU: 0x9001, offset: 0x2B71C, size: 0x8, addend: 0x0, symName: __ZNSt3__117__compressed_pairINS_12basic_stringIcNS_11char_traitsIcEENS_9allocatorIcEEE5__repES5_E6secondB8ue170006Ev, symObjAddr: 0x3718, symBinAddr: 0x1000112BC, symSize: 0x24 }
  - { offsetInCU: 0x9027, offset: 0x2B742, size: 0x8, addend: 0x0, symName: __ZNSt3__122__compressed_pair_elemINS_9allocatorIcEELi1ELb1EE5__getB8ue170006Ev, symObjAddr: 0x373C, symBinAddr: 0x1000112E0, symSize: 0x14 }
  - { offsetInCU: 0x904D, offset: 0x2B768, size: 0x8, addend: 0x0, symName: __ZNSt3__112basic_stringIcNS_11char_traitsIcEENS_9allocatorIcEEE19__move_assign_allocB8ue170006ERS5_NS_17integral_constantIbLb1EEE, symObjAddr: 0x3750, symBinAddr: 0x1000112F4, symSize: 0x38 }
  - { offsetInCU: 0x908E, offset: 0x2B7A9, size: 0x8, addend: 0x0, symName: __ZNSt3__112basic_stringIcNS_11char_traitsIcEENS_9allocatorIcEEEC1B8ue170006EOS5_, symObjAddr: 0x507C, symBinAddr: 0x10001132C, symSize: 0x34 }
  - { offsetInCU: 0x90C7, offset: 0x2B7E2, size: 0x8, addend: 0x0, symName: __ZNSt3__112basic_stringIcNS_11char_traitsIcEENS_9allocatorIcEEEC2B8ue170006EOS5_, symObjAddr: 0x50B0, symBinAddr: 0x100011360, symSize: 0x48 }
  - { offsetInCU: 0x3189, offset: 0x2E9F3, size: 0x8, addend: 0x0, symName: __ZNSt3__17advanceB8ue170006INS_21__tree_const_iteratorIP6PersonPNS_11__tree_nodeIS3_PvEElEEllvEEvRT_T0_, symObjAddr: 0x6CE0, symBinAddr: 0x1000161F0, symSize: 0x38 }
  - { offsetInCU: 0x3CE1, offset: 0x2F54B, size: 0x8, addend: 0x0, symName: __ZNSt3__14nextB8ue170006INS_21__tree_const_iteratorIP6PersonPNS_11__tree_nodeIS3_PvEElEEEENS_9enable_ifIXsr29__has_input_iterator_categoryIT_EE5valueESA_E4typeESA_NS_15iterator_traitsISA_E15difference_typeE, symObjAddr: 0x6BC4, symBinAddr: 0x1000160EC, symSize: 0x3C }
  - { offsetInCU: 0x3D24, offset: 0x2F58E, size: 0x8, addend: 0x0, symName: __ZNSt3__116__tree_prev_iterB8ue170006IPNS_16__tree_node_baseIPvEEPNS_15__tree_end_nodeIS4_EEEET_T0_, symObjAddr: 0x6C18, symBinAddr: 0x100016128, symSize: 0x88 }
  - { offsetInCU: 0x3D71, offset: 0x2F5DB, size: 0x8, addend: 0x0, symName: __ZNSt3__110__tree_maxB8ue170006IPNS_16__tree_node_baseIPvEEEET_S5_, symObjAddr: 0x6CA0, symBinAddr: 0x1000161B0, symSize: 0x40 }
  - { offsetInCU: 0x3DA6, offset: 0x2F610, size: 0x8, addend: 0x0, symName: __ZNSt3__121__convert_to_integralB8ue170006El, symObjAddr: 0x6D18, symBinAddr: 0x100016228, symSize: 0x14 }
  - { offsetInCU: 0x3DD2, offset: 0x2F63C, size: 0x8, addend: 0x0, symName: __ZNSt3__19__advanceB8ue170006INS_21__tree_const_iteratorIP6PersonPNS_11__tree_nodeIS3_PvEElEEEEvRT_NS_15iterator_traitsIS9_E15difference_typeENS_26bidirectional_iterator_tagE, symObjAddr: 0x6D2C, symBinAddr: 0x10001623C, symSize: 0xA4 }
  - { offsetInCU: 0x629F, offset: 0x31B09, size: 0x8, addend: 0x0, symName: __ZN6PersonC2ERKNSt3__112basic_stringIcNS0_11char_traitsIcEENS0_9allocatorIcEEEE6GenderPS_SA_, symObjAddr: 0x0, symBinAddr: 0x1000113A8, symSize: 0x13C }
  - { offsetInCU: 0x6303, offset: 0x31B6D, size: 0x8, addend: 0x0, symName: __ZN6Person8addChildEPS_, symObjAddr: 0x194, symBinAddr: 0x1000114E4, symSize: 0x3C }
  - { offsetInCU: 0x6339, offset: 0x31BA3, size: 0x8, addend: 0x0, symName: __ZN6PersonC1ERKNSt3__112basic_stringIcNS0_11char_traitsIcEENS0_9allocatorIcEEEE6GenderPS_SA_, symObjAddr: 0x1FC, symBinAddr: 0x100011520, symSize: 0x4C }
  - { offsetInCU: 0x639D, offset: 0x31C07, size: 0x8, addend: 0x0, symName: __ZNK6Person4nameEv, symObjAddr: 0x248, symBinAddr: 0x10001156C, symSize: 0x14 }
  - { offsetInCU: 0x63C5, offset: 0x31C2F, size: 0x8, addend: 0x0, symName: __ZNK6Person6genderEv, symObjAddr: 0x25C, symBinAddr: 0x100011580, symSize: 0x18 }
  - { offsetInCU: 0x63ED, offset: 0x31C57, size: 0x8, addend: 0x0, symName: __ZN6Person6motherEv, symObjAddr: 0x274, symBinAddr: 0x100011598, symSize: 0x18 }
  - { offsetInCU: 0x6415, offset: 0x31C7F, size: 0x8, addend: 0x0, symName: __ZN6Person6fatherEv, symObjAddr: 0x28C, symBinAddr: 0x1000115B0, symSize: 0x18 }
  - { offsetInCU: 0x643C, offset: 0x31CA6, size: 0x8, addend: 0x0, symName: __ZNK6Person11getChildrenEv, symObjAddr: 0x2F0, symBinAddr: 0x1000115C8, symSize: 0x18 }
  - { offsetInCU: 0x6464, offset: 0x31CCE, size: 0x8, addend: 0x0, symName: __ZNK6Person4kidsEv, symObjAddr: 0x308, symBinAddr: 0x1000115E0, symSize: 0x3C }
  - { offsetInCU: 0x648C, offset: 0x31CF6, size: 0x8, addend: 0x0, symName: __ZNSt3__13setIP6PersonNS_4lessIS2_EENS_9allocatorIS2_EEEC1B8ue170006ERKS7_, symObjAddr: 0x344, symBinAddr: 0x10001161C, symSize: 0x34 }
  - { offsetInCU: 0x64C5, offset: 0x31D2F, size: 0x8, addend: 0x0, symName: __ZN6Person9ancestorsE4PMod, symObjAddr: 0x378, symBinAddr: 0x100011650, symSize: 0x268 }
  - { offsetInCU: 0x6537, offset: 0x31DA1, size: 0x8, addend: 0x0, symName: __ZNSt3__13setIP6PersonNS_4lessIS2_EENS_9allocatorIS2_EEE6insertB8ue170006INS_21__tree_const_iteratorIS2_PNS_11__tree_nodeIS2_PvEElEEEEvT_SF_, symObjAddr: 0x5E0, symBinAddr: 0x1000118B8, symSize: 0x80 }
  - { offsetInCU: 0x65A1, offset: 0x31E0B, size: 0x8, addend: 0x0, symName: __ZN6Person5auntsE4PMod4SMod, symObjAddr: 0x6D0, symBinAddr: 0x100011938, symSize: 0x324 }
  - { offsetInCU: 0x66BD, offset: 0x31F27, size: 0x8, addend: 0x0, symName: __ZN6Person8siblingsE4PMod4SMod, symObjAddr: 0x9F4, symBinAddr: 0x100011C5C, symSize: 0x438 }
  - { offsetInCU: 0x681C, offset: 0x32086, size: 0x8, addend: 0x0, symName: __ZN6Person6unclesE4PMod4SMod, symObjAddr: 0xEC0, symBinAddr: 0x100012094, symSize: 0x324 }
  - { offsetInCU: 0x6938, offset: 0x321A2, size: 0x8, addend: 0x0, symName: __ZN6Person8brothersE4PMod4SMod, symObjAddr: 0x11E4, symBinAddr: 0x1000123B8, symSize: 0x7E0 }
  - { offsetInCU: 0x6ADC, offset: 0x32346, size: 0x8, addend: 0x0, symName: __ZN6Person8childrenEv, symObjAddr: 0x19C4, symBinAddr: 0x100012B98, symSize: 0x3C }
  - { offsetInCU: 0x6B04, offset: 0x3236E, size: 0x8, addend: 0x0, symName: __ZN6Person7cousinsE4PMod4SMod, symObjAddr: 0x1A00, symBinAddr: 0x100012BD4, symSize: 0x2E0 }
  - { offsetInCU: 0x6C1F, offset: 0x32489, size: 0x8, addend: 0x0, symName: __ZN6Person9daughtersEv, symObjAddr: 0x1CE0, symBinAddr: 0x100012EB4, symSize: 0x158 }
  - { offsetInCU: 0x6CA2, offset: 0x3250C, size: 0x8, addend: 0x0, symName: __ZN6Person11descendantsEv, symObjAddr: 0x1E38, symBinAddr: 0x10001300C, symSize: 0x1A0 }
  - { offsetInCU: 0x6D3B, offset: 0x325A5, size: 0x8, addend: 0x0, symName: __ZN6Person13grandchildrenEv, symObjAddr: 0x1FD8, symBinAddr: 0x1000131AC, symSize: 0x178 }
  - { offsetInCU: 0x6DD4, offset: 0x3263E, size: 0x8, addend: 0x0, symName: __ZN6Person14granddaughtersEv, symObjAddr: 0x2150, symBinAddr: 0x100013324, symSize: 0x184 }
  - { offsetInCU: 0x6E69, offset: 0x326D3, size: 0x8, addend: 0x0, symName: __ZN6Person12grandfathersE4PMod, symObjAddr: 0x22D4, symBinAddr: 0x1000134A8, symSize: 0x1E0 }
  - { offsetInCU: 0x6EAF, offset: 0x32719, size: 0x8, addend: 0x0, symName: __ZNSt3__13setIP6PersonNS_4lessIS2_EENS_9allocatorIS2_EEE6insertB8ue170006EOS2_, symObjAddr: 0x24B4, symBinAddr: 0x100013688, symSize: 0x4C }
  - { offsetInCU: 0x6EE4, offset: 0x3274E, size: 0x8, addend: 0x0, symName: __ZN6Person12grandmothersE4PMod, symObjAddr: 0x2500, symBinAddr: 0x1000136D4, symSize: 0x1E0 }
  - { offsetInCU: 0x6F2A, offset: 0x32794, size: 0x8, addend: 0x0, symName: __ZN6Person12grandparentsE4PMod, symObjAddr: 0x26E0, symBinAddr: 0x1000138B4, symSize: 0x178 }
  - { offsetInCU: 0x6F91, offset: 0x327FB, size: 0x8, addend: 0x0, symName: __ZN6Person9grandsonsEv, symObjAddr: 0x2858, symBinAddr: 0x100013A2C, symSize: 0x180 }
  - { offsetInCU: 0x7027, offset: 0x32891, size: 0x8, addend: 0x0, symName: __ZN6Person7nephewsE4PMod4SMod, symObjAddr: 0x29D8, symBinAddr: 0x100013BAC, symSize: 0x87C }
  - { offsetInCU: 0x71AC, offset: 0x32A16, size: 0x8, addend: 0x0, symName: __ZN6Person6niecesE4PMod4SMod, symObjAddr: 0x3254, symBinAddr: 0x100014428, symSize: 0x87C }
  - { offsetInCU: 0x7331, offset: 0x32B9B, size: 0x8, addend: 0x0, symName: __ZN6Person7parentsE4PMod, symObjAddr: 0x3AD0, symBinAddr: 0x100014CA4, symSize: 0x188 }
  - { offsetInCU: 0x7379, offset: 0x32BE3, size: 0x8, addend: 0x0, symName: __ZNSt3__13setIP6PersonNS_4lessIS2_EENS_9allocatorIS2_EEEaSB8ue170006EOS7_, symObjAddr: 0x3C58, symBinAddr: 0x100014E2C, symSize: 0x34 }
  - { offsetInCU: 0x73AE, offset: 0x32C18, size: 0x8, addend: 0x0, symName: __ZN6Person7sistersE4PMod4SMod, symObjAddr: 0x3CB8, symBinAddr: 0x100014E60, symSize: 0x7E0 }
  - { offsetInCU: 0x7555, offset: 0x32DBF, size: 0x8, addend: 0x0, symName: __ZN6Person4sonsEv, symObjAddr: 0x4498, symBinAddr: 0x100015640, symSize: 0x154 }
  - { offsetInCU: 0x75D9, offset: 0x32E43, size: 0x8, addend: 0x0, symName: __ZNK6Person8birthdayEv, symObjAddr: 0x45EC, symBinAddr: 0x100015794, symSize: 0x18 }
  - { offsetInCU: 0x7602, offset: 0x32E6C, size: 0x8, addend: 0x0, symName: __ZN6Person11setBirthdayERKNSt3__112basic_stringIcNS0_11char_traitsIcEENS0_9allocatorIcEEEE, symObjAddr: 0x4604, symBinAddr: 0x1000157AC, symSize: 0x30 }
  - { offsetInCU: 0x763A, offset: 0x32EA4, size: 0x8, addend: 0x0, symName: __ZNK6Person12favoriteFoodEv, symObjAddr: 0x4634, symBinAddr: 0x1000157DC, symSize: 0x18 }
  - { offsetInCU: 0x7663, offset: 0x32ECD, size: 0x8, addend: 0x0, symName: __ZN6Person15setFavoriteFoodERKNSt3__112basic_stringIcNS0_11char_traitsIcEENS0_9allocatorIcEEEE, symObjAddr: 0x464C, symBinAddr: 0x1000157F4, symSize: 0x30 }
  - { offsetInCU: 0x769B, offset: 0x32F05, size: 0x8, addend: 0x0, symName: __ZNK6Person7petNameEv, symObjAddr: 0x467C, symBinAddr: 0x100015824, symSize: 0x18 }
  - { offsetInCU: 0x76C4, offset: 0x32F2E, size: 0x8, addend: 0x0, symName: __ZN6Person10setPetNameERKNSt3__112basic_stringIcNS0_11char_traitsIcEENS0_9allocatorIcEEEE, symObjAddr: 0x4694, symBinAddr: 0x10001583C, symSize: 0x30 }
  - { offsetInCU: 0x770B, offset: 0x32F75, size: 0x8, addend: 0x0, symName: __ZNSt3__13setIP6PersonNS_4lessIS2_EENS_9allocatorIS2_EEEC2B8ue170006ERKS7_, symObjAddr: 0x61F8, symBinAddr: 0x10001586C, symSize: 0x88 }
  - { offsetInCU: 0x7744, offset: 0x32FAE, size: 0x8, addend: 0x0, symName: __ZNSt3__16__treeIP6PersonNS_4lessIS2_EENS_9allocatorIS2_EEEC1ERKS7_, symObjAddr: 0x6280, symBinAddr: 0x1000158F4, symSize: 0x34 }
  - { offsetInCU: 0x777F, offset: 0x32FE9, size: 0x8, addend: 0x0, symName: __ZNKSt3__13setIP6PersonNS_4lessIS2_EENS_9allocatorIS2_EEE5beginB8ue170006Ev, symObjAddr: 0x62B4, symBinAddr: 0x100015928, symSize: 0x2C }
  - { offsetInCU: 0x77A5, offset: 0x3300F, size: 0x8, addend: 0x0, symName: __ZNKSt3__13setIP6PersonNS_4lessIS2_EENS_9allocatorIS2_EEE3endB8ue170006Ev, symObjAddr: 0x62E0, symBinAddr: 0x100015954, symSize: 0x2C }
  - { offsetInCU: 0x77CB, offset: 0x33035, size: 0x8, addend: 0x0, symName: __ZNSt3__16__treeIP6PersonNS_4lessIS2_EENS_9allocatorIS2_EEEC2ERKS7_, symObjAddr: 0x630C, symBinAddr: 0x100015980, symSize: 0x9C }
  - { offsetInCU: 0x7806, offset: 0x33070, size: 0x8, addend: 0x0, symName: __ZNSt3__116allocator_traitsINS_9allocatorINS_11__tree_nodeIP6PersonPvEEEEE37select_on_container_copy_constructionB8ue170006IS7_vvEES7_RKS7_, symObjAddr: 0x63A8, symBinAddr: 0x100015A1C, symSize: 0x10 }
  - { offsetInCU: 0x7835, offset: 0x3309F, size: 0x8, addend: 0x0, symName: __ZNKSt3__16__treeIP6PersonNS_4lessIS2_EENS_9allocatorIS2_EEE12__node_allocB8ue170006Ev, symObjAddr: 0x63B8, symBinAddr: 0x100015A2C, symSize: 0x28 }
  - { offsetInCU: 0x7860, offset: 0x330CA, size: 0x8, addend: 0x0, symName: __ZNSt3__117__compressed_pairINS_15__tree_end_nodeIPNS_16__tree_node_baseIPvEEEENS_9allocatorINS_11__tree_nodeIP6PersonS3_EEEEEC1B8ue170006INS_18__default_init_tagESC_EEOT_OT0_, symObjAddr: 0x63E0, symBinAddr: 0x100015A54, symSize: 0x3C }
  - { offsetInCU: 0x78B8, offset: 0x33122, size: 0x8, addend: 0x0, symName: __ZNKSt3__117__compressed_pairINS_15__tree_end_nodeIPNS_16__tree_node_baseIPvEEEENS_9allocatorINS_11__tree_nodeIP6PersonS3_EEEEE6secondB8ue170006Ev, symObjAddr: 0x6444, symBinAddr: 0x100015A90, symSize: 0x24 }
  - { offsetInCU: 0x78DE, offset: 0x33148, size: 0x8, addend: 0x0, symName: __ZNKSt3__122__compressed_pair_elemINS_9allocatorINS_11__tree_nodeIP6PersonPvEEEELi1ELb1EE5__getB8ue170006Ev, symObjAddr: 0x6468, symBinAddr: 0x100015AB4, symSize: 0x14 }
  - { offsetInCU: 0x7904, offset: 0x3316E, size: 0x8, addend: 0x0, symName: __ZNSt3__117__compressed_pairINS_15__tree_end_nodeIPNS_16__tree_node_baseIPvEEEENS_9allocatorINS_11__tree_nodeIP6PersonS3_EEEEEC2B8ue170006INS_18__default_init_tagESC_EEOT_OT0_, symObjAddr: 0x647C, symBinAddr: 0x100015AC8, symSize: 0x40 }
  - { offsetInCU: 0x795C, offset: 0x331C6, size: 0x8, addend: 0x0, symName: __ZNSt3__122__compressed_pair_elemINS_15__tree_end_nodeIPNS_16__tree_node_baseIPvEEEELi0ELb0EEC2B8ue170006ENS_18__default_init_tagE, symObjAddr: 0x64BC, symBinAddr: 0x100015B08, symSize: 0x2C }
  - { offsetInCU: 0x7991, offset: 0x331FB, size: 0x8, addend: 0x0, symName: __ZNSt3__122__compressed_pair_elemINS_9allocatorINS_11__tree_nodeIP6PersonPvEEEELi1ELb1EEC2B8ue170006IS7_vEEOT_, symObjAddr: 0x64E8, symBinAddr: 0x100015B34, symSize: 0x18 }
  - { offsetInCU: 0x79D3, offset: 0x3323D, size: 0x8, addend: 0x0, symName: __ZNKSt3__16__treeIP6PersonNS_4lessIS2_EENS_9allocatorIS2_EEE5beginB8ue170006Ev, symObjAddr: 0x6538, symBinAddr: 0x100015B4C, symSize: 0x34 }
  - { offsetInCU: 0x79F9, offset: 0x33263, size: 0x8, addend: 0x0, symName: __ZNKSt3__16__treeIP6PersonNS_4lessIS2_EENS_9allocatorIS2_EEE12__begin_nodeB8ue170006Ev, symObjAddr: 0x656C, symBinAddr: 0x100015B80, symSize: 0x14 }
  - { offsetInCU: 0x7A1F, offset: 0x33289, size: 0x8, addend: 0x0, symName: __ZNSt3__121__tree_const_iteratorIP6PersonPNS_11__tree_nodeIS2_PvEElEC1B8ue170006EPNS_15__tree_end_nodeIPNS_16__tree_node_baseIS4_EEEE, symObjAddr: 0x6580, symBinAddr: 0x100015B94, symSize: 0x34 }
  - { offsetInCU: 0x7A58, offset: 0x332C2, size: 0x8, addend: 0x0, symName: __ZNSt3__121__tree_const_iteratorIP6PersonPNS_11__tree_nodeIS2_PvEElEC2B8ue170006EPNS_15__tree_end_nodeIPNS_16__tree_node_baseIS4_EEEE, symObjAddr: 0x65B4, symBinAddr: 0x100015BC8, symSize: 0x20 }
  - { offsetInCU: 0x7A91, offset: 0x332FB, size: 0x8, addend: 0x0, symName: __ZNKSt3__16__treeIP6PersonNS_4lessIS2_EENS_9allocatorIS2_EEE3endB8ue170006Ev, symObjAddr: 0x65D4, symBinAddr: 0x100015BE8, symSize: 0x34 }
  - { offsetInCU: 0x7AB7, offset: 0x33321, size: 0x8, addend: 0x0, symName: __ZNKSt3__13setIP6PersonNS_4lessIS2_EENS_9allocatorIS2_EEE4cendB8ue170006Ev, symObjAddr: 0x66C4, symBinAddr: 0x100015C1C, symSize: 0x2C }
  - { offsetInCU: 0x7ADD, offset: 0x33347, size: 0x8, addend: 0x0, symName: __ZNSt3__16__treeIP6PersonNS_4lessIS2_EENS_9allocatorIS2_EEE15__insert_uniqueB8ue170006ENS_21__tree_const_iteratorIS2_PNS_11__tree_nodeIS2_PvEElEERKS2_, symObjAddr: 0x66F0, symBinAddr: 0x100015C48, symSize: 0x64 }
  - { offsetInCU: 0x7B21, offset: 0x3338B, size: 0x8, addend: 0x0, symName: __ZNSt3__16__treeIP6PersonNS_4lessIS2_EENS_9allocatorIS2_EEE30__emplace_hint_unique_key_argsIS2_JRKS2_EEENS_4pairINS_15__tree_iteratorIS2_PNS_11__tree_nodeIS2_PvEElEEbEENS_21__tree_const_iteratorIS2_SG_lEERKT_DpOT0_, symObjAddr: 0x6754, symBinAddr: 0x100015CAC, symSize: 0x104 }
  - { offsetInCU: 0x7BED, offset: 0x33457, size: 0x8, addend: 0x0, symName: __ZNSt3__16__treeIP6PersonNS_4lessIS2_EENS_9allocatorIS2_EEE12__find_equalIS2_EERPNS_16__tree_node_baseIPvEENS_21__tree_const_iteratorIS2_PNS_11__tree_nodeIS2_SA_EElEERPNS_15__tree_end_nodeISC_EESD_RKT_, symObjAddr: 0x6858, symBinAddr: 0x100015DB0, symSize: 0x304 }
  - { offsetInCU: 0x7C96, offset: 0x33500, size: 0x8, addend: 0x0, symName: __ZNSt3__121__tree_const_iteratorIP6PersonPNS_11__tree_nodeIS2_PvEElEmmB8ue170006Ev, symObjAddr: 0x6B8C, symBinAddr: 0x1000160B4, symSize: 0x38 }
  - { offsetInCU: 0x7CBC, offset: 0x33526, size: 0x8, addend: 0x0, symName: __ZNSt3__16__treeIP6PersonNS_4lessIS2_EENS_9allocatorIS2_EEE15__insert_uniqueB8ue170006EOS2_, symObjAddr: 0x6E90, symBinAddr: 0x1000162E0, symSize: 0x50 }
  - { offsetInCU: 0x7CF6, offset: 0x33560, size: 0x8, addend: 0x0, symName: __ZNSt3__16__treeIP6PersonNS_4lessIS2_EENS_9allocatorIS2_EEE25__emplace_unique_key_argsIS2_JS2_EEENS_4pairINS_15__tree_iteratorIS2_PNS_11__tree_nodeIS2_PvEElEEbEERKT_DpOT0_, symObjAddr: 0x6EE0, symBinAddr: 0x100016330, symSize: 0xF0 }
  - { offsetInCU: 0x7DA2, offset: 0x3360C, size: 0x8, addend: 0x0, symName: __ZNSt3__16__treeIP6PersonNS_4lessIS2_EENS_9allocatorIS2_EEE16__construct_nodeIJS2_EEENS_10unique_ptrINS_11__tree_nodeIS2_PvEENS_22__tree_node_destructorINS5_ISC_EEEEEEDpOT_, symObjAddr: 0x6FD0, symBinAddr: 0x100016420, symSize: 0x108 }
  - { offsetInCU: 0x7E03, offset: 0x3366D, size: 0x8, addend: 0x0, symName: __ZNSt3__116allocator_traitsINS_9allocatorINS_11__tree_nodeIP6PersonPvEEEEE9constructB8ue170006IS4_JS4_EvEEvRS7_PT_DpOT0_, symObjAddr: 0x70D8, symBinAddr: 0x100016528, symSize: 0x34 }
  - { offsetInCU: 0x7E5A, offset: 0x336C4, size: 0x8, addend: 0x0, symName: __ZNSt3__19allocatorINS_11__tree_nodeIP6PersonPvEEE9constructB8ue170006IS3_JS3_EEEvPT_DpOT0_, symObjAddr: 0x710C, symBinAddr: 0x10001655C, symSize: 0x28 }
  - { offsetInCU: 0x7EB0, offset: 0x3371A, size: 0x8, addend: 0x0, symName: __ZNSt3__16__treeIP6PersonNS_4lessIS2_EENS_9allocatorIS2_EEEaSEOS7_, symObjAddr: 0x7134, symBinAddr: 0x100016584, symSize: 0x34 }
  - { offsetInCU: 0x7EE7, offset: 0x33751, size: 0x8, addend: 0x0, symName: __ZNSt3__16__treeIP6PersonNS_4lessIS2_EENS_9allocatorIS2_EEE13__move_assignERS7_NS_17integral_constantIbLb1EEE, symObjAddr: 0x7168, symBinAddr: 0x1000165B8, symSize: 0x138 }
  - { offsetInCU: 0x7F2A, offset: 0x33794, size: 0x8, addend: 0x0, symName: __ZNSt3__16__treeIP6PersonNS_4lessIS2_EENS_9allocatorIS2_EEE19__move_assign_allocB8ue170006ERS7_, symObjAddr: 0x72A0, symBinAddr: 0x1000166F0, symSize: 0x2C }
  - { offsetInCU: 0x7F5F, offset: 0x337C9, size: 0x8, addend: 0x0, symName: __ZNSt3__16__treeIP6PersonNS_4lessIS2_EENS_9allocatorIS2_EEE19__move_assign_allocB8ue170006ERS7_NS_17integral_constantIbLb1EEE, symObjAddr: 0x72CC, symBinAddr: 0x10001671C, symSize: 0x38 }
...
